---
triple:          'x86_64-apple-darwin'
binary-path:     '/Users/mityakim/Desktop/Learn_C/9-7/output/main'
relocations:
  - { offsetInCU: 0x462C, offset: 0x462C, size: 0x8, addend: 0x0, symName: __ZNSt3__124__put_character_sequenceB7v160006IcNS_11char_traitsIcEEEERNS_13basic_ostreamIT_T0_EES7_PKS4_m, symObjAddr: 0x3650, symBinAddr: 0x100004A20, symSize: 0x1F0 }
  - { offsetInCU: 0x6A55, offset: 0x6A55, size: 0x8, addend: 0x0, symName: __ZNSt3__1lsB7v160006INS_11char_traitsIcEEEERNS_13basic_ostreamIcT_EES6_PKc, symObjAddr: 0x960, symBinAddr: 0x100001D30, symSize: 0x40 }
  - { offsetInCU: 0x6A9B, offset: 0x6A9B, size: 0x8, addend: 0x0, symName: __ZNSt3__1rsB7v160006IcNS_11char_traitsIcEENS_9allocatorIcEEEERNS_13basic_istreamIT_T0_EES9_RNS_12basic_stringIS6_S7_T1_EE, symObjAddr: 0x9A0, symBinAddr: 0x100001D70, symSize: 0x2E0 }
  - { offsetInCU: 0x6B6A, offset: 0x6B6A, size: 0x8, addend: 0x0, symName: __ZNSt3__14endlB7v160006IcNS_11char_traitsIcEEEERNS_13basic_ostreamIT_T0_EES7_, symObjAddr: 0xCA0, symBinAddr: 0x100002070, symSize: 0x50 }
  - { offsetInCU: 0x6BAA, offset: 0x6BAA, size: 0x8, addend: 0x0, symName: __ZNSt3__1eqB7v160006IcNS_11char_traitsIcEENS_9allocatorIcEEEEbRKNS_12basic_stringIT_T0_T1_EEPKS6_, symObjAddr: 0x1480, symBinAddr: 0x100002850, symSize: 0xB0 }
  - { offsetInCU: 0x79C4, offset: 0x79C4, size: 0x8, addend: 0x0, symName: __ZNSt3__1neB7v160006IPK6PlayerEEbRKNS_11__wrap_iterIT_EES8_, symObjAddr: 0x1E60, symBinAddr: 0x100003230, symSize: 0x30 }
  - { offsetInCU: 0x7A07, offset: 0x7A07, size: 0x8, addend: 0x0, symName: __ZNSt3__1lsB7v160006IcNS_11char_traitsIcEEEERNS_13basic_ostreamIT_T0_EES7_RKNS_8__iom_t6E, symObjAddr: 0x1EB0, symBinAddr: 0x100003280, symSize: 0x40 }
  - { offsetInCU: 0x7A56, offset: 0x7A56, size: 0x8, addend: 0x0, symName: __ZNSt3__1lsB7v160006IcNS_11char_traitsIcEENS_9allocatorIcEEEERNS_13basic_ostreamIT_T0_EES9_RKNS_12basic_stringIS6_S7_T1_EE, symObjAddr: 0x1EF0, symBinAddr: 0x1000032C0, symSize: 0x50 }
  - { offsetInCU: 0x7AAE, offset: 0x7AAE, size: 0x8, addend: 0x0, symName: __ZNSt3__14leftB7v160006ERNS_8ios_baseE, symObjAddr: 0x1F70, symBinAddr: 0x100003340, symSize: 0x30 }
  - { offsetInCU: 0x7ADC, offset: 0x7ADC, size: 0x8, addend: 0x0, symName: __ZNSt3__14setwB7v160006Ei, symObjAddr: 0x1FA0, symBinAddr: 0x100003370, symSize: 0x20 }
  - { offsetInCU: 0x7B0A, offset: 0x7B0A, size: 0x8, addend: 0x0, symName: __ZNSt3__1eqB7v160006INS_9allocatorIcEEEEbRKNS_12basic_stringIcNS_11char_traitsIcEET_EES9_, symObjAddr: 0x20F0, symBinAddr: 0x1000034C0, symSize: 0x110 }
  - { offsetInCU: 0x7CF3, offset: 0x7CF3, size: 0x8, addend: 0x0, symName: __ZNSt3__119__debug_db_insert_cB7v160006INS_12basic_stringIcNS_11char_traitsIcEENS_9allocatorIcEEEEEEvPT_, symObjAddr: 0x2AD0, symBinAddr: 0x100003EA0, symSize: 0x10 }
  - { offsetInCU: 0x7D24, offset: 0x7D24, size: 0x8, addend: 0x0, symName: __ZNSt3__130__libcpp_is_constant_evaluatedB7v160006Ev, symObjAddr: 0x2C50, symBinAddr: 0x100004020, symSize: 0x10 }
  - { offsetInCU: 0x7D41, offset: 0x7D41, size: 0x8, addend: 0x0, symName: __ZNSt3__117__libcpp_allocateB7v160006Emm, symObjAddr: 0x2F30, symBinAddr: 0x100004300, symSize: 0x20 }
  - { offsetInCU: 0x7D7E, offset: 0x7D7E, size: 0x8, addend: 0x0, symName: __ZNSt3__121__libcpp_operator_newB7v160006IJmEEEPvDpT_, symObjAddr: 0x2F70, symBinAddr: 0x100004340, symSize: 0x20 }
  - { offsetInCU: 0x7DB7, offset: 0x7DB7, size: 0x8, addend: 0x0, symName: __ZNSt3__119__debug_db_insert_cB7v160006INS_6vectorI6PlayerNS_9allocatorIS2_EEEEEEvPT_, symObjAddr: 0x3040, symBinAddr: 0x100004410, symSize: 0x10 }
  - { offsetInCU: 0x7DE8, offset: 0x7DE8, size: 0x8, addend: 0x0, symName: __ZNSt3__118__debug_db_erase_cB7v160006INS_6vectorI6PlayerNS_9allocatorIS2_EEEEEEvPT_, symObjAddr: 0x32C0, symBinAddr: 0x100004690, symSize: 0x10 }
  - { offsetInCU: 0x7E19, offset: 0x7E19, size: 0x8, addend: 0x0, symName: __ZNSt3__112__to_addressB7v160006I6PlayerEEPT_S3_, symObjAddr: 0x33F0, symBinAddr: 0x1000047C0, symSize: 0x10 }
  - { offsetInCU: 0x7E4E, offset: 0x7E4E, size: 0x8, addend: 0x0, symName: __ZNSt3__119__libcpp_deallocateB7v160006EPvmm, symObjAddr: 0x3560, symBinAddr: 0x100004930, symSize: 0x30 }
  - { offsetInCU: 0x7E96, offset: 0x7E96, size: 0x8, addend: 0x0, symName: __ZNSt3__127__do_deallocate_handle_sizeB7v160006IJEEEvPvmDpT_, symObjAddr: 0x3590, symBinAddr: 0x100004960, symSize: 0x20 }
  - { offsetInCU: 0x7ED4, offset: 0x7ED4, size: 0x8, addend: 0x0, symName: __ZNSt3__124__libcpp_operator_deleteB7v160006IJPvEEEvDpT_, symObjAddr: 0x35B0, symBinAddr: 0x100004980, symSize: 0x20 }
  - { offsetInCU: 0x7F09, offset: 0x7F09, size: 0x8, addend: 0x0, symName: __ZNSt3__116__pad_and_outputB7v160006IcNS_11char_traitsIcEEEENS_19ostreambuf_iteratorIT_T0_EES6_PKS4_S8_S8_RNS_8ios_baseES4_, symObjAddr: 0x38A0, symBinAddr: 0x100004C70, symSize: 0x220 }
  - { offsetInCU: 0x7FD9, offset: 0x7FD9, size: 0x8, addend: 0x0, symName: __ZNSt3__112__to_addressB7v160006IKcEEPT_S3_, symObjAddr: 0x3D00, symBinAddr: 0x1000050D0, symSize: 0x10 }
  - { offsetInCU: 0x8041, offset: 0x8041, size: 0x8, addend: 0x0, symName: __ZNSt3__19use_facetB7v160006INS_5ctypeIcEEEERKT_RKNS_6localeE, symObjAddr: 0x3FB0, symBinAddr: 0x100005380, symSize: 0x30 }
  - { offsetInCU: 0x8421, offset: 0x8421, size: 0x8, addend: 0x0, symName: __ZNSt3__118__constexpr_strlenB7v160006EPKc, symObjAddr: 0x4040, symBinAddr: 0x100005410, symSize: 0x20 }
  - { offsetInCU: 0x864E, offset: 0x864E, size: 0x8, addend: 0x0, symName: __ZNSt3__125__debug_db_invalidate_allB7v160006INS_12basic_stringIcNS_11char_traitsIcEENS_9allocatorIcEEEEEEvPT_, symObjAddr: 0x4370, symBinAddr: 0x100005740, symSize: 0x10 }
  - { offsetInCU: 0x88B4, offset: 0x88B4, size: 0x8, addend: 0x0, symName: __ZNSt3__13maxB7v160006ImEERKT_S3_S3_, symObjAddr: 0x4D70, symBinAddr: 0x100006140, symSize: 0x30 }
  - { offsetInCU: 0x88F7, offset: 0x88F7, size: 0x8, addend: 0x0, symName: __ZNSt3__13minB7v160006ImEERKT_S3_S3_, symObjAddr: 0x4DA0, symBinAddr: 0x100006170, symSize: 0x30 }
  - { offsetInCU: 0x893A, offset: 0x893A, size: 0x8, addend: 0x0, symName: __ZNSt3__13minB7v160006ImNS_6__lessImmEEEERKT_S5_S5_T0_, symObjAddr: 0x4E10, symBinAddr: 0x1000061E0, symSize: 0x50 }
  - { offsetInCU: 0x89CF, offset: 0x89CF, size: 0x8, addend: 0x0, symName: __ZNSt3__120__throw_length_errorB7v160006EPKc, symObjAddr: 0x4EE0, symBinAddr: 0x1000062B0, symSize: 0x70 }
  - { offsetInCU: 0x89F7, offset: 0x89F7, size: 0x8, addend: 0x0, symName: __ZNSt3__13maxB7v160006ImNS_6__lessImmEEEERKT_S5_S5_T0_, symObjAddr: 0x4FC0, symBinAddr: 0x100006390, symSize: 0x50 }
  - { offsetInCU: 0x8A51, offset: 0x8A51, size: 0x8, addend: 0x0, symName: __ZNSt3__119__allocate_at_leastB7v160006INS_9allocatorI6PlayerEEEENS_19__allocation_resultINS_16allocator_traitsIT_E7pointerEEERS6_m, symObjAddr: 0x5100, symBinAddr: 0x1000064D0, symSize: 0x40 }
  - { offsetInCU: 0x8A94, offset: 0x8A94, size: 0x8, addend: 0x0, symName: __ZNSt3__142__uninitialized_allocator_move_if_noexceptB7v160006INS_9allocatorI6PlayerEENS_16reverse_iteratorIPS2_EES6_S6_EET2_RT_T0_T1_S7_, symObjAddr: 0x52C0, symBinAddr: 0x100006690, symSize: 0x190 }
  - { offsetInCU: 0x8B33, offset: 0x8B33, size: 0x8, addend: 0x0, symName: __ZNSt3__14swapB7v160006IP6PlayerEEvRT_S4_, symObjAddr: 0x54A0, symBinAddr: 0x100006870, symSize: 0x40 }
  - { offsetInCU: 0x8B84, offset: 0x8B84, size: 0x8, addend: 0x0, symName: __ZNSt3__125__debug_db_invalidate_allB7v160006INS_6vectorI6PlayerNS_9allocatorIS2_EEEEEEvPT_, symObjAddr: 0x5580, symBinAddr: 0x100006950, symSize: 0x10 }
  - { offsetInCU: 0x8BB5, offset: 0x8BB5, size: 0x8, addend: 0x0, symName: __ZNSt3__122__make_exception_guardB7v160006INS_29_AllocatorDestroyRangeReverseINS_9allocatorI6PlayerEENS_16reverse_iteratorIPS3_EEEEEENS_28__exception_guard_exceptionsIT_EESA_, symObjAddr: 0x5590, symBinAddr: 0x100006960, symSize: 0x60 }
  - { offsetInCU: 0x8BEA, offset: 0x8BEA, size: 0x8, addend: 0x0, symName: __ZNSt3__1neB7v160006IP6PlayerS2_EEbRKNS_16reverse_iteratorIT_EERKNS3_IT0_EE, symObjAddr: 0x5630, symBinAddr: 0x100006A00, symSize: 0x40 }
  - { offsetInCU: 0x8C36, offset: 0x8C36, size: 0x8, addend: 0x0, symName: __ZNSt3__112__to_addressB7v160006INS_16reverse_iteratorIP6PlayerEEvEENS_5decayIDTclsr19__to_address_helperIT_EE6__callclsr3stdE7declvalIRKS6_EEEEE4typeES8_, symObjAddr: 0x5670, symBinAddr: 0x100006A40, symSize: 0x20 }
  - { offsetInCU: 0x8C95, offset: 0x8C95, size: 0x8, addend: 0x0, symName: __ZNSt3__119__allocator_destroyB7v160006INS_9allocatorI6PlayerEENS_16reverse_iteratorINS4_IPS2_EEEES7_EEvRT_T0_T1_, symObjAddr: 0x5960, symBinAddr: 0x100006D30, symSize: 0x70 }
  - { offsetInCU: 0x8CF8, offset: 0x8CF8, size: 0x8, addend: 0x0, symName: __ZNSt3__1neB7v160006INS_16reverse_iteratorIP6PlayerEES4_EEbRKNS1_IT_EERKNS1_IT0_EE, symObjAddr: 0x5A00, symBinAddr: 0x100006DD0, symSize: 0x50 }
  - { offsetInCU: 0x8D44, offset: 0x8D44, size: 0x8, addend: 0x0, symName: __ZNSt3__112__to_addressB7v160006INS_16reverse_iteratorINS1_IP6PlayerEEEEvEENS_5decayIDTclsr19__to_address_helperIT_EE6__callclsr3stdE7declvalIRKS7_EEEEE4typeES9_, symObjAddr: 0x5A50, symBinAddr: 0x100006E20, symSize: 0x20 }
  - { offsetInCU: 0x8DA3, offset: 0x8DA3, size: 0x8, addend: 0x0, symName: __ZNSt3__1eqB7v160006IPK6PlayerEEbRKNS_11__wrap_iterIT_EES8_, symObjAddr: 0x5E30, symBinAddr: 0x100007200, symSize: 0x40 }
  - { offsetInCU: 0x8DE6, offset: 0x8DE6, size: 0x8, addend: 0x0, symName: __ZNSt3__118__constexpr_memcmpB7v160006IcEEiPKT_S3_m, symObjAddr: 0x5F00, symBinAddr: 0x1000072D0, symSize: 0x30 }
  - { offsetInCU: 0x8FFA, offset: 0x8FFA, size: 0x8, addend: 0x0, symName: __ZSt28__throw_bad_array_new_lengthB7v160006v, symObjAddr: 0x2EF0, symBinAddr: 0x1000042C0, symSize: 0x40 }
  - { offsetInCU: 0x962C, offset: 0x962C, size: 0x8, addend: 0x0, symName: __ZNSt3__16vectorI6PlayerNS_9allocatorIS1_EEE26__swap_out_circular_bufferERNS_14__split_bufferIS1_RS3_EE, symObjAddr: 0x4B90, symBinAddr: 0x100005F60, symSize: 0x130 }
  - { offsetInCU: 0xB8EB, offset: 0xB8EB, size: 0x8, addend: 0x0, symName: _main, symObjAddr: 0x0, symBinAddr: 0x1000013D0, symSize: 0x510 }
  - { offsetInCU: 0xB94D, offset: 0xB94D, size: 0x8, addend: 0x0, symName: __ZNSt3__112basic_stringIcNS_11char_traitsIcEENS_9allocatorIcEEEC1B7v160006Ev, symObjAddr: 0x510, symBinAddr: 0x1000018E0, symSize: 0x20 }
  - { offsetInCU: 0xB976, offset: 0xB976, size: 0x8, addend: 0x0, symName: __ZNSt3__16vectorI6PlayerNS_9allocatorIS1_EEEC1B7v160006Ev, symObjAddr: 0x530, symBinAddr: 0x100001900, symSize: 0x20 }
  - { offsetInCU: 0xB99E, offset: 0xB99E, size: 0x8, addend: 0x0, symName: __Z8readDataRNSt3__16vectorI6PlayerNS_9allocatorIS1_EEEE, symObjAddr: 0x550, symBinAddr: 0x100001920, symSize: 0x2A0 }
  - { offsetInCU: 0xBA00, offset: 0xBA00, size: 0x8, addend: 0x0, symName: __Z9printMenuv, symObjAddr: 0x7F0, symBinAddr: 0x100001BC0, symSize: 0x170 }
  - { offsetInCU: 0xBA2D, offset: 0xBA2D, size: 0x8, addend: 0x0, symName: __ZNSt3__113basic_ostreamIcNS_11char_traitsIcEEElsB7v160006EPFRS3_S4_E, symObjAddr: 0xC80, symBinAddr: 0x100002050, symSize: 0x20 }
  - { offsetInCU: 0xBA5F, offset: 0xBA5F, size: 0x8, addend: 0x0, symName: __Z11printPlayerNSt3__112basic_stringIcNS_11char_traitsIcEENS_9allocatorIcEEEERKNS_6vectorI6PlayerNS3_IS7_EEEE, symObjAddr: 0xCF0, symBinAddr: 0x1000020C0, symSize: 0x450 }
  - { offsetInCU: 0xBAA5, offset: 0xBAA5, size: 0x8, addend: 0x0, symName: __Z13printFullDataRKNSt3__16vectorI6PlayerNS_9allocatorIS1_EEEE, symObjAddr: 0x1150, symBinAddr: 0x100002520, symSize: 0x260 }
  - { offsetInCU: 0xBB20, offset: 0xBB20, size: 0x8, addend: 0x0, symName: __Z16updateTouchDownsNSt3__112basic_stringIcNS_11char_traitsIcEENS_9allocatorIcEEEEiRKNS_6vectorI6PlayerNS3_IS7_EEEE, symObjAddr: 0x13B0, symBinAddr: 0x100002780, symSize: 0xD0 }
  - { offsetInCU: 0xBB74, offset: 0xBB74, size: 0x8, addend: 0x0, symName: __Z11saveNewDataRKNSt3__16vectorI6PlayerNS_9allocatorIS1_EEEE, symObjAddr: 0x1530, symBinAddr: 0x100002900, symSize: 0x5A0 }
  - { offsetInCU: 0xBC04, offset: 0xBC04, size: 0x8, addend: 0x0, symName: __ZNSt3__16vectorI6PlayerNS_9allocatorIS1_EEED1B7v160006Ev, symObjAddr: 0x1AD0, symBinAddr: 0x100002EA0, symSize: 0x20 }
  - { offsetInCU: 0xBD4E, offset: 0xBD4E, size: 0x8, addend: 0x0, symName: __ZNSt3__114basic_ifstreamIcNS_11char_traitsIcEEEC1EPKcj, symObjAddr: 0x1AF0, symBinAddr: 0x100002EC0, symSize: 0x180 }
  - { offsetInCU: 0xBD97, offset: 0xBD97, size: 0x8, addend: 0x0, symName: __ZNKSt3__19basic_iosIcNS_11char_traitsIcEEEntB7v160006Ev, symObjAddr: 0x1C70, symBinAddr: 0x100003040, symSize: 0x20 }
  - { offsetInCU: 0xBDC1, offset: 0xBDC1, size: 0x8, addend: 0x0, symName: __ZN6PlayerC1Ev, symObjAddr: 0x1C90, symBinAddr: 0x100003060, symSize: 0x20 }
  - { offsetInCU: 0xBDEB, offset: 0xBDEB, size: 0x8, addend: 0x0, symName: __ZNSt3__16vectorI6PlayerNS_9allocatorIS1_EEE9push_backB7v160006ERKS1_, symObjAddr: 0x1CB0, symBinAddr: 0x100003080, symSize: 0x60 }
  - { offsetInCU: 0xBE21, offset: 0xBE21, size: 0x8, addend: 0x0, symName: __ZN6PlayerD1Ev, symObjAddr: 0x1D10, symBinAddr: 0x1000030E0, symSize: 0x20 }
  - { offsetInCU: 0xBE4B, offset: 0xBE4B, size: 0x8, addend: 0x0, symName: __ZNSt3__114basic_ifstreamIcNS_11char_traitsIcEEE5closeEv, symObjAddr: 0x1D30, symBinAddr: 0x100003100, symSize: 0x50 }
  - { offsetInCU: 0xBE77, offset: 0xBE77, size: 0x8, addend: 0x0, symName: __ZNSt3__114basic_ifstreamIcNS_11char_traitsIcEEED1Ev, symObjAddr: 0x1D80, symBinAddr: 0x100003150, symSize: 0x80 }
  - { offsetInCU: 0xBEA2, offset: 0xBEA2, size: 0x8, addend: 0x0, symName: __ZNKSt3__16vectorI6PlayerNS_9allocatorIS1_EEE5beginB7v160006Ev, symObjAddr: 0x1E00, symBinAddr: 0x1000031D0, symSize: 0x30 }
  - { offsetInCU: 0xBEC8, offset: 0xBEC8, size: 0x8, addend: 0x0, symName: __ZNKSt3__16vectorI6PlayerNS_9allocatorIS1_EEE3endB7v160006Ev, symObjAddr: 0x1E30, symBinAddr: 0x100003200, symSize: 0x30 }
  - { offsetInCU: 0xBEEF, offset: 0xBEEF, size: 0x8, addend: 0x0, symName: __ZNKSt3__111__wrap_iterIPK6PlayerEdeB7v160006Ev, symObjAddr: 0x1E90, symBinAddr: 0x100003260, symSize: 0x20 }
  - { offsetInCU: 0xBF14, offset: 0xBF14, size: 0x8, addend: 0x0, symName: __ZNSt3__113basic_ostreamIcNS_11char_traitsIcEEElsB7v160006EPFRNS_8ios_baseES5_E, symObjAddr: 0x1F40, symBinAddr: 0x100003310, symSize: 0x30 }
  - { offsetInCU: 0xBF47, offset: 0xBF47, size: 0x8, addend: 0x0, symName: __ZNSt3__111__wrap_iterIPK6PlayerEppB7v160006Ev, symObjAddr: 0x1FC0, symBinAddr: 0x100003390, symSize: 0x20 }
  - { offsetInCU: 0xBF6B, offset: 0xBF6B, size: 0x8, addend: 0x0, symName: __Z10findPlayerNSt3__112basic_stringIcNS_11char_traitsIcEENS_9allocatorIcEEEERKNS_6vectorI6PlayerNS3_IS7_EEEE, symObjAddr: 0x1FE0, symBinAddr: 0x1000033B0, symSize: 0x110 }
  - { offsetInCU: 0xC000, offset: 0xC000, size: 0x8, addend: 0x0, symName: __ZN6PlayeraSERKS_, symObjAddr: 0x2200, symBinAddr: 0x1000035D0, symSize: 0x60 }
  - { offsetInCU: 0xC02F, offset: 0xC02F, size: 0x8, addend: 0x0, symName: __Z21updateNumberOfCatchesNSt3__112basic_stringIcNS_11char_traitsIcEENS_9allocatorIcEEEEiRKNS_6vectorI6PlayerNS3_IS7_EEEE, symObjAddr: 0x2260, symBinAddr: 0x100003630, symSize: 0xD0 }
  - { offsetInCU: 0xC083, offset: 0xC083, size: 0x8, addend: 0x0, symName: __Z18updatePassingYardsNSt3__112basic_stringIcNS_11char_traitsIcEENS_9allocatorIcEEEEiRKNS_6vectorI6PlayerNS3_IS7_EEEE, symObjAddr: 0x2330, symBinAddr: 0x100003700, symSize: 0xD0 }
  - { offsetInCU: 0xC0D7, offset: 0xC0D7, size: 0x8, addend: 0x0, symName: __Z20updateReceivingYardsNSt3__112basic_stringIcNS_11char_traitsIcEENS_9allocatorIcEEEEiRKNS_6vectorI6PlayerNS3_IS7_EEEE, symObjAddr: 0x2400, symBinAddr: 0x1000037D0, symSize: 0xA0 }
  - { offsetInCU: 0xC12B, offset: 0xC12B, size: 0x8, addend: 0x0, symName: __Z18updateRushingYardsNSt3__112basic_stringIcNS_11char_traitsIcEENS_9allocatorIcEEEEiRKNS_6vectorI6PlayerNS3_IS7_EEEE, symObjAddr: 0x24A0, symBinAddr: 0x100003870, symSize: 0xD0 }
  - { offsetInCU: 0xC199, offset: 0xC199, size: 0x8, addend: 0x0, symName: __ZNSt3__114basic_ofstreamIcNS_11char_traitsIcEEEC1Ev, symObjAddr: 0x2570, symBinAddr: 0x100003940, symSize: 0x100 }
  - { offsetInCU: 0xC1C3, offset: 0xC1C3, size: 0x8, addend: 0x0, symName: __ZNSt3__114basic_ofstreamIcNS_11char_traitsIcEEE5closeEv, symObjAddr: 0x2670, symBinAddr: 0x100003A40, symSize: 0x50 }
  - { offsetInCU: 0xC1EF, offset: 0xC1EF, size: 0x8, addend: 0x0, symName: __ZNSt3__114basic_ofstreamIcNS_11char_traitsIcEEED1Ev, symObjAddr: 0x26C0, symBinAddr: 0x100003A90, symSize: 0x80 }
  - { offsetInCU: 0xC21B, offset: 0xC21B, size: 0x8, addend: 0x0, symName: __ZN6PlayerC2Ev, symObjAddr: 0x2740, symBinAddr: 0x100003B10, symSize: 0x70 }
  - { offsetInCU: 0xC246, offset: 0xC246, size: 0x8, addend: 0x0, symName: __ZN6PlayerD2Ev, symObjAddr: 0x27B0, symBinAddr: 0x100003B80, symSize: 0x70 }
  - { offsetInCU: 0xC271, offset: 0xC271, size: 0x8, addend: 0x0, symName: __ZNSt3__114basic_ifstreamIcNS_11char_traitsIcEEED2Ev, symObjAddr: 0x2820, symBinAddr: 0x100003BF0, symSize: 0xA0 }
  - { offsetInCU: 0xC2A9, offset: 0xC2A9, size: 0x8, addend: 0x0, symName: __ZTv0_n24_NSt3__114basic_ifstreamIcNS_11char_traitsIcEEED1Ev, symObjAddr: 0x28C0, symBinAddr: 0x100003C90, symSize: 0x20 }
  - { offsetInCU: 0xC2BF, offset: 0xC2BF, size: 0x8, addend: 0x0, symName: __ZNSt3__18ios_base4setfB7v160006Ejj, symObjAddr: 0x28E0, symBinAddr: 0x100003CB0, symSize: 0x50 }
  - { offsetInCU: 0xC312, offset: 0xC312, size: 0x8, addend: 0x0, symName: __ZNSt3__18ios_base6unsetfB7v160006Ej, symObjAddr: 0x2930, symBinAddr: 0x100003D00, symSize: 0x20 }
  - { offsetInCU: 0xC348, offset: 0xC348, size: 0x8, addend: 0x0, symName: __ZNSt3__18__iom_t6C1B7v160006Ei, symObjAddr: 0x2950, symBinAddr: 0x100003D20, symSize: 0x30 }
  - { offsetInCU: 0xC37F, offset: 0xC37F, size: 0x8, addend: 0x0, symName: __ZNSt3__18__iom_t6C2B7v160006Ei, symObjAddr: 0x2980, symBinAddr: 0x100003D50, symSize: 0x20 }
  - { offsetInCU: 0xC3B6, offset: 0xC3B6, size: 0x8, addend: 0x0, symName: __ZNSt3__114basic_ofstreamIcNS_11char_traitsIcEEED2Ev, symObjAddr: 0x29A0, symBinAddr: 0x100003D70, symSize: 0xA0 }
  - { offsetInCU: 0xC3EE, offset: 0xC3EE, size: 0x8, addend: 0x0, symName: __ZTv0_n24_NSt3__114basic_ofstreamIcNS_11char_traitsIcEEED1Ev, symObjAddr: 0x2A40, symBinAddr: 0x100003E10, symSize: 0x20 }
  - { offsetInCU: 0xC405, offset: 0xC405, size: 0x8, addend: 0x0, symName: __ZNSt3__112basic_stringIcNS_11char_traitsIcEENS_9allocatorIcEEEC2B7v160006Ev, symObjAddr: 0x2A60, symBinAddr: 0x100003E30, symSize: 0x40 }
  - { offsetInCU: 0xC433, offset: 0xC433, size: 0x8, addend: 0x0, symName: __ZNSt3__117__compressed_pairINS_12basic_stringIcNS_11char_traitsIcEENS_9allocatorIcEEE5__repES5_EC1B7v160006INS_18__default_init_tagESA_EEOT_OT0_, symObjAddr: 0x2AA0, symBinAddr: 0x100003E70, symSize: 0x30 }
  - { offsetInCU: 0xC48A, offset: 0xC48A, size: 0x8, addend: 0x0, symName: __ZNSt3__112basic_stringIcNS_11char_traitsIcEENS_9allocatorIcEEE14__default_initB7v160006Ev, symObjAddr: 0x2AE0, symBinAddr: 0x100003EB0, symSize: 0xC0 }
  - { offsetInCU: 0xC4DC, offset: 0xC4DC, size: 0x8, addend: 0x0, symName: __ZNSt3__117__compressed_pairINS_12basic_stringIcNS_11char_traitsIcEENS_9allocatorIcEEE5__repES5_EC2B7v160006INS_18__default_init_tagESA_EEOT_OT0_, symObjAddr: 0x2BA0, symBinAddr: 0x100003F70, symSize: 0x30 }
  - { offsetInCU: 0xC533, offset: 0xC533, size: 0x8, addend: 0x0, symName: __ZNSt3__122__compressed_pair_elemINS_12basic_stringIcNS_11char_traitsIcEENS_9allocatorIcEEE5__repELi0ELb0EEC2B7v160006ENS_18__default_init_tagE, symObjAddr: 0x2BD0, symBinAddr: 0x100003FA0, symSize: 0x10 }
  - { offsetInCU: 0xC567, offset: 0xC567, size: 0x8, addend: 0x0, symName: __ZNSt3__122__compressed_pair_elemINS_9allocatorIcEELi1ELb1EEC2B7v160006ENS_18__default_init_tagE, symObjAddr: 0x2BE0, symBinAddr: 0x100003FB0, symSize: 0x20 }
  - { offsetInCU: 0xC59B, offset: 0xC59B, size: 0x8, addend: 0x0, symName: __ZNSt3__19allocatorIcEC2B7v160006Ev, symObjAddr: 0x2C00, symBinAddr: 0x100003FD0, symSize: 0x20 }
  - { offsetInCU: 0xC5C4, offset: 0xC5C4, size: 0x8, addend: 0x0, symName: __ZNSt3__116__non_trivial_ifILb1ENS_9allocatorIcEEEC2B7v160006Ev, symObjAddr: 0x2C20, symBinAddr: 0x100003FF0, symSize: 0x10 }
  - { offsetInCU: 0xC5ED, offset: 0xC5ED, size: 0x8, addend: 0x0, symName: __ZNSt3__117__compressed_pairINS_12basic_stringIcNS_11char_traitsIcEENS_9allocatorIcEEE5__repES5_E5firstB7v160006Ev, symObjAddr: 0x2C30, symBinAddr: 0x100004000, symSize: 0x20 }
  - { offsetInCU: 0xC612, offset: 0xC612, size: 0x8, addend: 0x0, symName: __ZNSt3__112basic_stringIcNS_11char_traitsIcEENS_9allocatorIcEEE11__recommendB7v160006Em, symObjAddr: 0x2C60, symBinAddr: 0x100004030, symSize: 0x90 }
  - { offsetInCU: 0xC645, offset: 0xC645, size: 0x8, addend: 0x0, symName: __ZNSt3__116allocator_traitsINS_9allocatorIcEEE8allocateB7v160006ERS2_m, symObjAddr: 0x2CF0, symBinAddr: 0x1000040C0, symSize: 0x30 }
  - { offsetInCU: 0xC678, offset: 0xC678, size: 0x8, addend: 0x0, symName: __ZNSt3__112basic_stringIcNS_11char_traitsIcEENS_9allocatorIcEEE7__allocB7v160006Ev, symObjAddr: 0x2D20, symBinAddr: 0x1000040F0, symSize: 0x20 }
  - { offsetInCU: 0xC69D, offset: 0xC69D, size: 0x8, addend: 0x0, symName: __ZNSt3__112basic_stringIcNS_11char_traitsIcEENS_9allocatorIcEEE16__begin_lifetimeB7v160006EPcm, symObjAddr: 0x2D40, symBinAddr: 0x100004110, symSize: 0x10 }
  - { offsetInCU: 0xC6D0, offset: 0xC6D0, size: 0x8, addend: 0x0, symName: __ZNSt3__112basic_stringIcNS_11char_traitsIcEENS_9allocatorIcEEE18__set_long_pointerB7v160006EPc, symObjAddr: 0x2D50, symBinAddr: 0x100004120, symSize: 0x30 }
  - { offsetInCU: 0xC704, offset: 0xC704, size: 0x8, addend: 0x0, symName: __ZNSt3__112basic_stringIcNS_11char_traitsIcEENS_9allocatorIcEEE14__set_long_capB7v160006Em, symObjAddr: 0x2D80, symBinAddr: 0x100004150, symSize: 0x70 }
  - { offsetInCU: 0xC738, offset: 0xC738, size: 0x8, addend: 0x0, symName: __ZNSt3__112basic_stringIcNS_11char_traitsIcEENS_9allocatorIcEEE15__set_long_sizeB7v160006Em, symObjAddr: 0x2DF0, symBinAddr: 0x1000041C0, symSize: 0x30 }
  - { offsetInCU: 0xC76C, offset: 0xC76C, size: 0x8, addend: 0x0, symName: __ZNSt3__122__compressed_pair_elemINS_12basic_stringIcNS_11char_traitsIcEENS_9allocatorIcEEE5__repELi0ELb0EE5__getB7v160006Ev, symObjAddr: 0x2E20, symBinAddr: 0x1000041F0, symSize: 0x10 }
  - { offsetInCU: 0xC791, offset: 0xC791, size: 0x8, addend: 0x0, symName: __ZNSt3__112basic_stringIcNS_11char_traitsIcEENS_9allocatorIcEEE10__align_itB7v160006ILm16EEEmm, symObjAddr: 0x2E30, symBinAddr: 0x100004200, symSize: 0x20 }
  - { offsetInCU: 0xC7BF, offset: 0xC7BF, size: 0x8, addend: 0x0, symName: __ZNSt3__19allocatorIcE8allocateB7v160006Em, symObjAddr: 0x2E50, symBinAddr: 0x100004220, symSize: 0x80 }
  - { offsetInCU: 0xC7FC, offset: 0xC7FC, size: 0x8, addend: 0x0, symName: __ZNSt3__116allocator_traitsINS_9allocatorIcEEE8max_sizeB7v160006IS2_vEEmRKS2_, symObjAddr: 0x2ED0, symBinAddr: 0x1000042A0, symSize: 0x20 }
  - { offsetInCU: 0xC82A, offset: 0xC82A, size: 0x8, addend: 0x0, symName: __ZNKSt3__19allocatorIcE8max_sizeB7v160006Ev, symObjAddr: 0x2F50, symBinAddr: 0x100004320, symSize: 0x20 }
  - { offsetInCU: 0xC84F, offset: 0xC84F, size: 0x8, addend: 0x0, symName: __ZNSt3__117__compressed_pairINS_12basic_stringIcNS_11char_traitsIcEENS_9allocatorIcEEE5__repES5_E6secondB7v160006Ev, symObjAddr: 0x2F90, symBinAddr: 0x100004360, symSize: 0x20 }
  - { offsetInCU: 0xC874, offset: 0xC874, size: 0x8, addend: 0x0, symName: __ZNSt3__122__compressed_pair_elemINS_9allocatorIcEELi1ELb1EE5__getB7v160006Ev, symObjAddr: 0x2FB0, symBinAddr: 0x100004380, symSize: 0x10 }
  - { offsetInCU: 0xC899, offset: 0xC899, size: 0x8, addend: 0x0, symName: __ZNSt3__16vectorI6PlayerNS_9allocatorIS1_EEEC2B7v160006Ev, symObjAddr: 0x2FC0, symBinAddr: 0x100004390, symSize: 0x50 }
  - { offsetInCU: 0xC8C7, offset: 0xC8C7, size: 0x8, addend: 0x0, symName: __ZNSt3__117__compressed_pairIP6PlayerNS_9allocatorIS1_EEEC1B7v160006IDnNS_18__default_init_tagEEEOT_OT0_, symObjAddr: 0x3010, symBinAddr: 0x1000043E0, symSize: 0x30 }
  - { offsetInCU: 0xC91E, offset: 0xC91E, size: 0x8, addend: 0x0, symName: __ZNSt3__117__compressed_pairIP6PlayerNS_9allocatorIS1_EEEC2B7v160006IDnNS_18__default_init_tagEEEOT_OT0_, symObjAddr: 0x3050, symBinAddr: 0x100004420, symSize: 0x40 }
  - { offsetInCU: 0xC975, offset: 0xC975, size: 0x8, addend: 0x0, symName: __ZNSt3__122__compressed_pair_elemIP6PlayerLi0ELb0EEC2B7v160006IDnvEEOT_, symObjAddr: 0x3090, symBinAddr: 0x100004460, symSize: 0x20 }
  - { offsetInCU: 0xC9B6, offset: 0xC9B6, size: 0x8, addend: 0x0, symName: __ZNSt3__122__compressed_pair_elemINS_9allocatorI6PlayerEELi1ELb1EEC2B7v160006ENS_18__default_init_tagE, symObjAddr: 0x30B0, symBinAddr: 0x100004480, symSize: 0x20 }
  - { offsetInCU: 0xC9EA, offset: 0xC9EA, size: 0x8, addend: 0x0, symName: __ZNSt3__19allocatorI6PlayerEC2B7v160006Ev, symObjAddr: 0x30D0, symBinAddr: 0x1000044A0, symSize: 0x20 }
  - { offsetInCU: 0xCA13, offset: 0xCA13, size: 0x8, addend: 0x0, symName: __ZNSt3__116__non_trivial_ifILb1ENS_9allocatorI6PlayerEEEC2B7v160006Ev, symObjAddr: 0x30F0, symBinAddr: 0x1000044C0, symSize: 0x10 }
  - { offsetInCU: 0xCA3C, offset: 0xCA3C, size: 0x8, addend: 0x0, symName: __ZNSt3__16vectorI6PlayerNS_9allocatorIS1_EEED2B7v160006Ev, symObjAddr: 0x3100, symBinAddr: 0x1000044D0, symSize: 0x30 }
  - { offsetInCU: 0xCA65, offset: 0xCA65, size: 0x8, addend: 0x0, symName: __ZNSt3__16vectorI6PlayerNS_9allocatorIS1_EEE16__destroy_vectorC1ERS4_, symObjAddr: 0x3130, symBinAddr: 0x100004500, symSize: 0x30 }
  - { offsetInCU: 0xCA9D, offset: 0xCA9D, size: 0x8, addend: 0x0, symName: __ZNSt3__16vectorI6PlayerNS_9allocatorIS1_EEE16__destroy_vectorclB7v160006Ev, symObjAddr: 0x3160, symBinAddr: 0x100004530, symSize: 0x90 }
  - { offsetInCU: 0xCAC2, offset: 0xCAC2, size: 0x8, addend: 0x0, symName: __ZNSt3__16vectorI6PlayerNS_9allocatorIS1_EEE16__destroy_vectorC2ERS4_, symObjAddr: 0x31F0, symBinAddr: 0x1000045C0, symSize: 0x20 }
  - { offsetInCU: 0xCAFA, offset: 0xCAFA, size: 0x8, addend: 0x0, symName: __ZNKSt3__16vectorI6PlayerNS_9allocatorIS1_EEE17__annotate_deleteB7v160006Ev, symObjAddr: 0x3210, symBinAddr: 0x1000045E0, symSize: 0xB0 }
  - { offsetInCU: 0xCB1F, offset: 0xCB1F, size: 0x8, addend: 0x0, symName: __ZNSt3__16vectorI6PlayerNS_9allocatorIS1_EEE7__clearB7v160006Ev, symObjAddr: 0x32D0, symBinAddr: 0x1000046A0, symSize: 0x20 }
  - { offsetInCU: 0xCB44, offset: 0xCB44, size: 0x8, addend: 0x0, symName: __ZNSt3__116allocator_traitsINS_9allocatorI6PlayerEEE10deallocateB7v160006ERS3_PS2_m, symObjAddr: 0x32F0, symBinAddr: 0x1000046C0, symSize: 0x30 }
  - { offsetInCU: 0xCB86, offset: 0xCB86, size: 0x8, addend: 0x0, symName: __ZNSt3__16vectorI6PlayerNS_9allocatorIS1_EEE7__allocB7v160006Ev, symObjAddr: 0x3320, symBinAddr: 0x1000046F0, symSize: 0x20 }
  - { offsetInCU: 0xCBAB, offset: 0xCBAB, size: 0x8, addend: 0x0, symName: __ZNKSt3__16vectorI6PlayerNS_9allocatorIS1_EEE8capacityB7v160006Ev, symObjAddr: 0x3340, symBinAddr: 0x100004710, symSize: 0x40 }
  - { offsetInCU: 0xCBD0, offset: 0xCBD0, size: 0x8, addend: 0x0, symName: __ZNKSt3__16vectorI6PlayerNS_9allocatorIS1_EEE31__annotate_contiguous_containerB7v160006EPKvS6_S6_S6_, symObjAddr: 0x3380, symBinAddr: 0x100004750, symSize: 0x20 }
  - { offsetInCU: 0xCC25, offset: 0xCC25, size: 0x8, addend: 0x0, symName: __ZNKSt3__16vectorI6PlayerNS_9allocatorIS1_EEE4dataB7v160006Ev, symObjAddr: 0x33A0, symBinAddr: 0x100004770, symSize: 0x20 }
  - { offsetInCU: 0xCC4A, offset: 0xCC4A, size: 0x8, addend: 0x0, symName: __ZNKSt3__16vectorI6PlayerNS_9allocatorIS1_EEE4sizeB7v160006Ev, symObjAddr: 0x33C0, symBinAddr: 0x100004790, symSize: 0x30 }
  - { offsetInCU: 0xCC6F, offset: 0xCC6F, size: 0x8, addend: 0x0, symName: __ZNSt3__16vectorI6PlayerNS_9allocatorIS1_EEE22__base_destruct_at_endB7v160006EPS1_, symObjAddr: 0x3400, symBinAddr: 0x1000047D0, symSize: 0x90 }
  - { offsetInCU: 0xCCB2, offset: 0xCCB2, size: 0x8, addend: 0x0, symName: __ZNSt3__116allocator_traitsINS_9allocatorI6PlayerEEE7destroyB7v160006IS2_vEEvRS3_PT_, symObjAddr: 0x3490, symBinAddr: 0x100004860, symSize: 0x30 }
  - { offsetInCU: 0xCCEF, offset: 0xCCEF, size: 0x8, addend: 0x0, symName: __ZNSt3__19allocatorI6PlayerE7destroyB7v160006EPS1_, symObjAddr: 0x34C0, symBinAddr: 0x100004890, symSize: 0x20 }
  - { offsetInCU: 0xCD22, offset: 0xCD22, size: 0x8, addend: 0x0, symName: __ZNSt3__19allocatorI6PlayerE10deallocateB7v160006EPS1_m, symObjAddr: 0x34E0, symBinAddr: 0x1000048B0, symSize: 0x80 }
  - { offsetInCU: 0xCD63, offset: 0xCD63, size: 0x8, addend: 0x0, symName: __ZNSt3__117__compressed_pairIP6PlayerNS_9allocatorIS1_EEE6secondB7v160006Ev, symObjAddr: 0x35D0, symBinAddr: 0x1000049A0, symSize: 0x20 }
  - { offsetInCU: 0xCD88, offset: 0xCD88, size: 0x8, addend: 0x0, symName: __ZNSt3__122__compressed_pair_elemINS_9allocatorI6PlayerEELi1ELb1EE5__getB7v160006Ev, symObjAddr: 0x35F0, symBinAddr: 0x1000049C0, symSize: 0x10 }
  - { offsetInCU: 0xCDAD, offset: 0xCDAD, size: 0x8, addend: 0x0, symName: __ZNKSt3__16vectorI6PlayerNS_9allocatorIS1_EEE9__end_capB7v160006Ev, symObjAddr: 0x3600, symBinAddr: 0x1000049D0, symSize: 0x20 }
  - { offsetInCU: 0xCDD2, offset: 0xCDD2, size: 0x8, addend: 0x0, symName: __ZNKSt3__117__compressed_pairIP6PlayerNS_9allocatorIS1_EEE5firstB7v160006Ev, symObjAddr: 0x3620, symBinAddr: 0x1000049F0, symSize: 0x20 }
  - { offsetInCU: 0xCDF7, offset: 0xCDF7, size: 0x8, addend: 0x0, symName: __ZNKSt3__122__compressed_pair_elemIP6PlayerLi0ELb0EE5__getB7v160006Ev, symObjAddr: 0x3640, symBinAddr: 0x100004A10, symSize: 0x10 }
  - { offsetInCU: 0xCE1C, offset: 0xCE1C, size: 0x8, addend: 0x0, symName: __ZNSt3__111char_traitsIcE6lengthEPKc, symObjAddr: 0x3840, symBinAddr: 0x100004C10, symSize: 0x40 }
  - { offsetInCU: 0xCE5D, offset: 0xCE5D, size: 0x8, addend: 0x0, symName: __ZNKSt3__113basic_ostreamIcNS_11char_traitsIcEEE6sentrycvbB7v160006Ev, symObjAddr: 0x3880, symBinAddr: 0x100004C50, symSize: 0x20 }
  - { offsetInCU: 0xCE82, offset: 0xCE82, size: 0x8, addend: 0x0, symName: __ZNSt3__119ostreambuf_iteratorIcNS_11char_traitsIcEEEC1B7v160006ERNS_13basic_ostreamIcS2_EE, symObjAddr: 0x3AC0, symBinAddr: 0x100004E90, symSize: 0x30 }
  - { offsetInCU: 0xCEB8, offset: 0xCEB8, size: 0x8, addend: 0x0, symName: __ZNKSt3__18ios_base5flagsB7v160006Ev, symObjAddr: 0x3AF0, symBinAddr: 0x100004EC0, symSize: 0x20 }
  - { offsetInCU: 0xCEDE, offset: 0xCEDE, size: 0x8, addend: 0x0, symName: __ZNKSt3__19basic_iosIcNS_11char_traitsIcEEE4fillB7v160006Ev, symObjAddr: 0x3B10, symBinAddr: 0x100004EE0, symSize: 0x70 }
  - { offsetInCU: 0xCF05, offset: 0xCF05, size: 0x8, addend: 0x0, symName: __ZNKSt3__119ostreambuf_iteratorIcNS_11char_traitsIcEEE6failedB7v160006Ev, symObjAddr: 0x3B80, symBinAddr: 0x100004F50, symSize: 0x20 }
  - { offsetInCU: 0xCF2A, offset: 0xCF2A, size: 0x8, addend: 0x0, symName: __ZNSt3__19basic_iosIcNS_11char_traitsIcEEE8setstateB7v160006Ej, symObjAddr: 0x3BA0, symBinAddr: 0x100004F70, symSize: 0x30 }
  - { offsetInCU: 0xCF5D, offset: 0xCF5D, size: 0x8, addend: 0x0, symName: __ZNKSt3__18ios_base5widthB7v160006Ev, symObjAddr: 0x3BD0, symBinAddr: 0x100004FA0, symSize: 0x20 }
  - { offsetInCU: 0xCF84, offset: 0xCF84, size: 0x8, addend: 0x0, symName: __ZNSt3__115basic_streambufIcNS_11char_traitsIcEEE5sputnB7v160006EPKcl, symObjAddr: 0x3BF0, symBinAddr: 0x100004FC0, symSize: 0x30 }
  - { offsetInCU: 0xCFC5, offset: 0xCFC5, size: 0x8, addend: 0x0, symName: __ZNSt3__112basic_stringIcNS_11char_traitsIcEENS_9allocatorIcEEEC1B7v160006Emc, symObjAddr: 0x3C20, symBinAddr: 0x100004FF0, symSize: 0x30 }
  - { offsetInCU: 0xD00C, offset: 0xD00C, size: 0x8, addend: 0x0, symName: __ZNKSt3__112basic_stringIcNS_11char_traitsIcEENS_9allocatorIcEEE4dataB7v160006Ev, symObjAddr: 0x3C50, symBinAddr: 0x100005020, symSize: 0x30 }
  - { offsetInCU: 0xD030, offset: 0xD030, size: 0x8, addend: 0x0, symName: __ZNSt3__18ios_base5widthB7v160006El, symObjAddr: 0x3C80, symBinAddr: 0x100005050, symSize: 0x30 }
  - { offsetInCU: 0xD075, offset: 0xD075, size: 0x8, addend: 0x0, symName: __ZNSt3__112basic_stringIcNS_11char_traitsIcEENS_9allocatorIcEEEC2B7v160006Emc, symObjAddr: 0x3CB0, symBinAddr: 0x100005080, symSize: 0x50 }
  - { offsetInCU: 0xD0BC, offset: 0xD0BC, size: 0x8, addend: 0x0, symName: __ZNKSt3__112basic_stringIcNS_11char_traitsIcEENS_9allocatorIcEEE13__get_pointerB7v160006Ev, symObjAddr: 0x3D10, symBinAddr: 0x1000050E0, symSize: 0x50 }
  - { offsetInCU: 0xD0E1, offset: 0xD0E1, size: 0x8, addend: 0x0, symName: __ZNKSt3__112basic_stringIcNS_11char_traitsIcEENS_9allocatorIcEEE9__is_longB7v160006Ev, symObjAddr: 0x3D60, symBinAddr: 0x100005130, symSize: 0x60 }
  - { offsetInCU: 0xD106, offset: 0xD106, size: 0x8, addend: 0x0, symName: __ZNKSt3__112basic_stringIcNS_11char_traitsIcEENS_9allocatorIcEEE18__get_long_pointerB7v160006Ev, symObjAddr: 0x3DC0, symBinAddr: 0x100005190, symSize: 0x20 }
  - { offsetInCU: 0xD12B, offset: 0xD12B, size: 0x8, addend: 0x0, symName: __ZNKSt3__112basic_stringIcNS_11char_traitsIcEENS_9allocatorIcEEE19__get_short_pointerB7v160006Ev, symObjAddr: 0x3DE0, symBinAddr: 0x1000051B0, symSize: 0x30 }
  - { offsetInCU: 0xD150, offset: 0xD150, size: 0x8, addend: 0x0, symName: __ZNKSt3__117__compressed_pairINS_12basic_stringIcNS_11char_traitsIcEENS_9allocatorIcEEE5__repES5_E5firstB7v160006Ev, symObjAddr: 0x3E10, symBinAddr: 0x1000051E0, symSize: 0x20 }
  - { offsetInCU: 0xD175, offset: 0xD175, size: 0x8, addend: 0x0, symName: __ZNKSt3__122__compressed_pair_elemINS_12basic_stringIcNS_11char_traitsIcEENS_9allocatorIcEEE5__repELi0ELb0EE5__getB7v160006Ev, symObjAddr: 0x3E30, symBinAddr: 0x100005200, symSize: 0x10 }
  - { offsetInCU: 0xD19A, offset: 0xD19A, size: 0x8, addend: 0x0, symName: __ZNSt3__114pointer_traitsIPKcE10pointer_toB7v160006ERS1_, symObjAddr: 0x3E40, symBinAddr: 0x100005210, symSize: 0x10 }
  - { offsetInCU: 0xD1BD, offset: 0xD1BD, size: 0x8, addend: 0x0, symName: __ZNSt3__119ostreambuf_iteratorIcNS_11char_traitsIcEEEC2B7v160006ERNS_13basic_ostreamIcS2_EE, symObjAddr: 0x3E50, symBinAddr: 0x100005220, symSize: 0x60 }
  - { offsetInCU: 0xD1F3, offset: 0xD1F3, size: 0x8, addend: 0x0, symName: __ZNKSt3__19basic_iosIcNS_11char_traitsIcEEE5rdbufB7v160006Ev, symObjAddr: 0x3EB0, symBinAddr: 0x100005280, symSize: 0x20 }
  - { offsetInCU: 0xD21A, offset: 0xD21A, size: 0x8, addend: 0x0, symName: __ZNKSt3__18ios_base5rdbufB7v160006Ev, symObjAddr: 0x3ED0, symBinAddr: 0x1000052A0, symSize: 0x20 }
  - { offsetInCU: 0xD23F, offset: 0xD23F, size: 0x8, addend: 0x0, symName: __ZNSt3__111char_traitsIcE11eq_int_typeEii, symObjAddr: 0x3EF0, symBinAddr: 0x1000052C0, symSize: 0x20 }
  - { offsetInCU: 0xD270, offset: 0xD270, size: 0x8, addend: 0x0, symName: __ZNSt3__111char_traitsIcE3eofEv, symObjAddr: 0x3F10, symBinAddr: 0x1000052E0, symSize: 0x10 }
  - { offsetInCU: 0xD283, offset: 0xD283, size: 0x8, addend: 0x0, symName: __ZNKSt3__19basic_iosIcNS_11char_traitsIcEEE5widenB7v160006Ec, symObjAddr: 0x3F20, symBinAddr: 0x1000052F0, symSize: 0x90 }
  - { offsetInCU: 0xD2E6, offset: 0xD2E6, size: 0x8, addend: 0x0, symName: __ZNKSt3__15ctypeIcE5widenB7v160006Ec, symObjAddr: 0x3FE0, symBinAddr: 0x1000053B0, symSize: 0x30 }
  - { offsetInCU: 0xD319, offset: 0xD319, size: 0x8, addend: 0x0, symName: __ZNSt3__18ios_base8setstateB7v160006Ej, symObjAddr: 0x4010, symBinAddr: 0x1000053E0, symSize: 0x30 }
  - { offsetInCU: 0xD36D, offset: 0xD36D, size: 0x8, addend: 0x0, symName: __ZNKSt3__113basic_istreamIcNS_11char_traitsIcEEE6sentrycvbB7v160006Ev, symObjAddr: 0x4060, symBinAddr: 0x100005430, symSize: 0x20 }
  - { offsetInCU: 0xD391, offset: 0xD391, size: 0x8, addend: 0x0, symName: __ZNSt3__112basic_stringIcNS_11char_traitsIcEENS_9allocatorIcEEE5clearB7v160006Ev, symObjAddr: 0x4080, symBinAddr: 0x100005450, symSize: 0xA0 }
  - { offsetInCU: 0xD3B8, offset: 0xD3B8, size: 0x8, addend: 0x0, symName: __ZNKSt3__112basic_stringIcNS_11char_traitsIcEENS_9allocatorIcEEE8max_sizeB7v160006Ev, symObjAddr: 0x4120, symBinAddr: 0x1000054F0, symSize: 0xA0 }
  - { offsetInCU: 0xD40A, offset: 0xD40A, size: 0x8, addend: 0x0, symName: __ZNSt3__114numeric_limitsIlE3maxB7v160006Ev, symObjAddr: 0x41C0, symBinAddr: 0x100005590, symSize: 0x10 }
  - { offsetInCU: 0xD41E, offset: 0xD41E, size: 0x8, addend: 0x0, symName: __ZNSt3__115basic_streambufIcNS_11char_traitsIcEEE5sgetcB7v160006Ev, symObjAddr: 0x41D0, symBinAddr: 0x1000055A0, symSize: 0x50 }
  - { offsetInCU: 0xD443, offset: 0xD443, size: 0x8, addend: 0x0, symName: __ZNSt3__111char_traitsIcE12to_char_typeEi, symObjAddr: 0x4220, symBinAddr: 0x1000055F0, symSize: 0x10 }
  - { offsetInCU: 0xD466, offset: 0xD466, size: 0x8, addend: 0x0, symName: __ZNKSt3__15ctypeIcE2isB7v160006Ejc, symObjAddr: 0x4230, symBinAddr: 0x100005600, symSize: 0x70 }
  - { offsetInCU: 0xD4A9, offset: 0xD4A9, size: 0x8, addend: 0x0, symName: __ZNSt3__115basic_streambufIcNS_11char_traitsIcEEE6sbumpcB7v160006Ev, symObjAddr: 0x42A0, symBinAddr: 0x100005670, symSize: 0x60 }
  - { offsetInCU: 0xD4CE, offset: 0xD4CE, size: 0x8, addend: 0x0, symName: __ZNSt3__18ios_base18__setstate_nothrowB7v160006Ej, symObjAddr: 0x4300, symBinAddr: 0x1000056D0, symSize: 0x50 }
  - { offsetInCU: 0xD502, offset: 0xD502, size: 0x8, addend: 0x0, symName: __ZNKSt3__19basic_iosIcNS_11char_traitsIcEEE10exceptionsB7v160006Ev, symObjAddr: 0x4350, symBinAddr: 0x100005720, symSize: 0x20 }
  - { offsetInCU: 0xD527, offset: 0xD527, size: 0x8, addend: 0x0, symName: __ZNSt3__111char_traitsIcE6assignERcRKc, symObjAddr: 0x4380, symBinAddr: 0x100005750, symSize: 0x20 }
  - { offsetInCU: 0xD558, offset: 0xD558, size: 0x8, addend: 0x0, symName: __ZNSt3__112basic_stringIcNS_11char_traitsIcEENS_9allocatorIcEEE18__get_long_pointerB7v160006Ev, symObjAddr: 0x43A0, symBinAddr: 0x100005770, symSize: 0x20 }
  - { offsetInCU: 0xD57D, offset: 0xD57D, size: 0x8, addend: 0x0, symName: __ZNSt3__112basic_stringIcNS_11char_traitsIcEENS_9allocatorIcEEE19__get_short_pointerB7v160006Ev, symObjAddr: 0x43C0, symBinAddr: 0x100005790, symSize: 0x30 }
  - { offsetInCU: 0xD5A2, offset: 0xD5A2, size: 0x8, addend: 0x0, symName: __ZNSt3__112basic_stringIcNS_11char_traitsIcEENS_9allocatorIcEEE16__set_short_sizeB7v160006Em, symObjAddr: 0x43F0, symBinAddr: 0x1000057C0, symSize: 0x50 }
  - { offsetInCU: 0xD5D6, offset: 0xD5D6, size: 0x8, addend: 0x0, symName: __ZNSt3__114pointer_traitsIPcE10pointer_toB7v160006ERc, symObjAddr: 0x4440, symBinAddr: 0x100005810, symSize: 0x10 }
  - { offsetInCU: 0xD5F9, offset: 0xD5F9, size: 0x8, addend: 0x0, symName: __ZNKSt3__112basic_stringIcNS_11char_traitsIcEENS_9allocatorIcEEE7__allocB7v160006Ev, symObjAddr: 0x4450, symBinAddr: 0x100005820, symSize: 0x20 }
  - { offsetInCU: 0xD61E, offset: 0xD61E, size: 0x8, addend: 0x0, symName: __ZNSt3__114numeric_limitsImE3maxB7v160006Ev, symObjAddr: 0x4470, symBinAddr: 0x100005840, symSize: 0x10 }
  - { offsetInCU: 0xD632, offset: 0xD632, size: 0x8, addend: 0x0, symName: __ZNKSt3__117__compressed_pairINS_12basic_stringIcNS_11char_traitsIcEENS_9allocatorIcEEE5__repES5_E6secondB7v160006Ev, symObjAddr: 0x4480, symBinAddr: 0x100005850, symSize: 0x20 }
  - { offsetInCU: 0xD657, offset: 0xD657, size: 0x8, addend: 0x0, symName: __ZNKSt3__122__compressed_pair_elemINS_9allocatorIcEELi1ELb1EE5__getB7v160006Ev, symObjAddr: 0x44A0, symBinAddr: 0x100005870, symSize: 0x10 }
  - { offsetInCU: 0xD67C, offset: 0xD67C, size: 0x8, addend: 0x0, symName: __ZNSt3__123__libcpp_numeric_limitsImLb1EE3maxB7v160006Ev, symObjAddr: 0x44B0, symBinAddr: 0x100005880, symSize: 0x10 }
  - { offsetInCU: 0xD690, offset: 0xD690, size: 0x8, addend: 0x0, symName: __ZNSt3__123__libcpp_numeric_limitsIlLb1EE3maxB7v160006Ev, symObjAddr: 0x44C0, symBinAddr: 0x100005890, symSize: 0x10 }
  - { offsetInCU: 0xD6A4, offset: 0xD6A4, size: 0x8, addend: 0x0, symName: __ZNSt3__111char_traitsIcE11to_int_typeEc, symObjAddr: 0x44D0, symBinAddr: 0x1000058A0, symSize: 0x10 }
  - { offsetInCU: 0xD6C6, offset: 0xD6C6, size: 0x8, addend: 0x0, symName: __Z7isasciii, symObjAddr: 0x44E0, symBinAddr: 0x1000058B0, symSize: 0x20 }
  - { offsetInCU: 0xD6F2, offset: 0xD6F2, size: 0x8, addend: 0x0, symName: __ZNKSt3__18ios_base10exceptionsB7v160006Ev, symObjAddr: 0x4500, symBinAddr: 0x1000058D0, symSize: 0x20 }
  - { offsetInCU: 0xD719, offset: 0xD719, size: 0x8, addend: 0x0, symName: __ZNKSt3__112basic_stringIcNS_11char_traitsIcEENS_9allocatorIcEEE4sizeB7v160006Ev, symObjAddr: 0x4520, symBinAddr: 0x1000058F0, symSize: 0x50 }
  - { offsetInCU: 0xD73E, offset: 0xD73E, size: 0x8, addend: 0x0, symName: __ZNKSt3__112basic_stringIcNS_11char_traitsIcEENS_9allocatorIcEEE15__get_long_sizeB7v160006Ev, symObjAddr: 0x4570, symBinAddr: 0x100005940, symSize: 0x20 }
  - { offsetInCU: 0xD763, offset: 0xD763, size: 0x8, addend: 0x0, symName: __ZNKSt3__112basic_stringIcNS_11char_traitsIcEENS_9allocatorIcEEE16__get_short_sizeB7v160006Ev, symObjAddr: 0x4590, symBinAddr: 0x100005960, symSize: 0x30 }
  - { offsetInCU: 0xD788, offset: 0xD788, size: 0x8, addend: 0x0, symName: __ZNSt3__19basic_iosIcNS_11char_traitsIcEEEC2B7v160006Ev, symObjAddr: 0x45C0, symBinAddr: 0x100005990, symSize: 0x40 }
  - { offsetInCU: 0xD7B1, offset: 0xD7B1, size: 0x8, addend: 0x0, symName: __ZNSt3__113basic_istreamIcNS_11char_traitsIcEEEC2B7v160006EPNS_15basic_streambufIcS2_EE, symObjAddr: 0x4600, symBinAddr: 0x1000059D0, symSize: 0x50 }
  - { offsetInCU: 0xD7F4, offset: 0xD7F4, size: 0x8, addend: 0x0, symName: __ZNSt3__18ios_baseC2B7v160006Ev, symObjAddr: 0x4650, symBinAddr: 0x100005A20, symSize: 0x20 }
  - { offsetInCU: 0xD81C, offset: 0xD81C, size: 0x8, addend: 0x0, symName: __ZNSt3__19basic_iosIcNS_11char_traitsIcEEE4initB7v160006EPNS_15basic_streambufIcS2_EE, symObjAddr: 0x4670, symBinAddr: 0x100005A40, symSize: 0x50 }
  - { offsetInCU: 0xD852, offset: 0xD852, size: 0x8, addend: 0x0, symName: __ZNKSt3__19basic_iosIcNS_11char_traitsIcEEE4failB7v160006Ev, symObjAddr: 0x46C0, symBinAddr: 0x100005A90, symSize: 0x20 }
  - { offsetInCU: 0xD876, offset: 0xD876, size: 0x8, addend: 0x0, symName: __ZNKSt3__18ios_base4failB7v160006Ev, symObjAddr: 0x46E0, symBinAddr: 0x100005AB0, symSize: 0x20 }
  - { offsetInCU: 0xD89D, offset: 0xD89D, size: 0x8, addend: 0x0, symName: __ZNSt3__16vectorI6PlayerNS_9allocatorIS1_EEE9__end_capB7v160006Ev, symObjAddr: 0x4700, symBinAddr: 0x100005AD0, symSize: 0x20 }
  - { offsetInCU: 0xD8C2, offset: 0xD8C2, size: 0x8, addend: 0x0, symName: __ZNSt3__16vectorI6PlayerNS_9allocatorIS1_EEE22__construct_one_at_endB7v160006IJRKS1_EEEvDpOT_, symObjAddr: 0x4720, symBinAddr: 0x100005AF0, symSize: 0xA0 }
  - { offsetInCU: 0xD90F, offset: 0xD90F, size: 0x8, addend: 0x0, symName: __ZNSt3__16vectorI6PlayerNS_9allocatorIS1_EEE21__push_back_slow_pathIRKS1_EEvOT_, symObjAddr: 0x47C0, symBinAddr: 0x100005B90, symSize: 0xE0 }
  - { offsetInCU: 0xD96C, offset: 0xD96C, size: 0x8, addend: 0x0, symName: __ZNSt3__117__compressed_pairIP6PlayerNS_9allocatorIS1_EEE5firstB7v160006Ev, symObjAddr: 0x48A0, symBinAddr: 0x100005C70, symSize: 0x20 }
  - { offsetInCU: 0xD991, offset: 0xD991, size: 0x8, addend: 0x0, symName: __ZNSt3__122__compressed_pair_elemIP6PlayerLi0ELb0EE5__getB7v160006Ev, symObjAddr: 0x48C0, symBinAddr: 0x100005C90, symSize: 0x10 }
  - { offsetInCU: 0xD9CF, offset: 0xD9CF, size: 0x8, addend: 0x0, symName: __ZNSt3__16vectorI6PlayerNS_9allocatorIS1_EEE21_ConstructTransactionC1B7v160006ERS4_m, symObjAddr: 0x48D0, symBinAddr: 0x100005CA0, symSize: 0x30 }
  - { offsetInCU: 0xDA16, offset: 0xDA16, size: 0x8, addend: 0x0, symName: __ZNSt3__116allocator_traitsINS_9allocatorI6PlayerEEE9constructB7v160006IS2_JRKS2_EvEEvRS3_PT_DpOT0_, symObjAddr: 0x4900, symBinAddr: 0x100005CD0, symSize: 0x30 }
  - { offsetInCU: 0xDA6D, offset: 0xDA6D, size: 0x8, addend: 0x0, symName: __ZNSt3__16vectorI6PlayerNS_9allocatorIS1_EEE21_ConstructTransactionD1B7v160006Ev, symObjAddr: 0x4930, symBinAddr: 0x100005D00, symSize: 0x20 }
  - { offsetInCU: 0xDA96, offset: 0xDA96, size: 0x8, addend: 0x0, symName: __ZNSt3__16vectorI6PlayerNS_9allocatorIS1_EEE21_ConstructTransactionC2B7v160006ERS4_m, symObjAddr: 0x4950, symBinAddr: 0x100005D20, symSize: 0x40 }
  - { offsetInCU: 0xDADD, offset: 0xDADD, size: 0x8, addend: 0x0, symName: __ZNSt3__19allocatorI6PlayerE9constructB7v160006IS1_JRKS1_EEEvPT_DpOT0_, symObjAddr: 0x4990, symBinAddr: 0x100005D60, symSize: 0x30 }
  - { offsetInCU: 0xDB32, offset: 0xDB32, size: 0x8, addend: 0x0, symName: __ZN6PlayerC1ERKS_, symObjAddr: 0x49C0, symBinAddr: 0x100005D90, symSize: 0x30 }
  - { offsetInCU: 0xDB66, offset: 0xDB66, size: 0x8, addend: 0x0, symName: __ZN6PlayerC2ERKS_, symObjAddr: 0x49F0, symBinAddr: 0x100005DC0, symSize: 0xA0 }
  - { offsetInCU: 0xDB9A, offset: 0xDB9A, size: 0x8, addend: 0x0, symName: __ZNSt3__16vectorI6PlayerNS_9allocatorIS1_EEE21_ConstructTransactionD2B7v160006Ev, symObjAddr: 0x4A90, symBinAddr: 0x100005E60, symSize: 0x20 }
  - { offsetInCU: 0xDBC2, offset: 0xDBC2, size: 0x8, addend: 0x0, symName: __ZNKSt3__16vectorI6PlayerNS_9allocatorIS1_EEE11__recommendB7v160006Em, symObjAddr: 0x4AB0, symBinAddr: 0x100005E80, symSize: 0xA0 }
  - { offsetInCU: 0xDC16, offset: 0xDC16, size: 0x8, addend: 0x0, symName: __ZNSt3__114__split_bufferI6PlayerRNS_9allocatorIS1_EEEC1EmmS4_, symObjAddr: 0x4B50, symBinAddr: 0x100005F20, symSize: 0x40 }
  - { offsetInCU: 0xDC6B, offset: 0xDC6B, size: 0x8, addend: 0x0, symName: __ZNSt3__114__split_bufferI6PlayerRNS_9allocatorIS1_EEED1Ev, symObjAddr: 0x4CC0, symBinAddr: 0x100006090, symSize: 0x20 }
  - { offsetInCU: 0xDC95, offset: 0xDC95, size: 0x8, addend: 0x0, symName: __ZNKSt3__16vectorI6PlayerNS_9allocatorIS1_EEE8max_sizeEv, symObjAddr: 0x4CE0, symBinAddr: 0x1000060B0, symSize: 0x70 }
  - { offsetInCU: 0xDCBC, offset: 0xDCBC, size: 0x8, addend: 0x0, symName: __ZNKSt3__16vectorI6PlayerNS_9allocatorIS1_EEE20__throw_length_errorB7v160006Ev, symObjAddr: 0x4D50, symBinAddr: 0x100006120, symSize: 0x20 }
  - { offsetInCU: 0xDCEB, offset: 0xDCEB, size: 0x8, addend: 0x0, symName: __ZNSt3__116allocator_traitsINS_9allocatorI6PlayerEEE8max_sizeB7v160006IS3_vEEmRKS3_, symObjAddr: 0x4DD0, symBinAddr: 0x1000061A0, symSize: 0x20 }
  - { offsetInCU: 0xDD19, offset: 0xDD19, size: 0x8, addend: 0x0, symName: __ZNKSt3__16vectorI6PlayerNS_9allocatorIS1_EEE7__allocB7v160006Ev, symObjAddr: 0x4DF0, symBinAddr: 0x1000061C0, symSize: 0x20 }
  - { offsetInCU: 0xDD52, offset: 0xDD52, size: 0x8, addend: 0x0, symName: __ZNKSt3__16__lessImmEclB7v160006ERKmS3_, symObjAddr: 0x4E60, symBinAddr: 0x100006230, symSize: 0x30 }
  - { offsetInCU: 0xDD93, offset: 0xDD93, size: 0x8, addend: 0x0, symName: __ZNKSt3__19allocatorI6PlayerE8max_sizeB7v160006Ev, symObjAddr: 0x4E90, symBinAddr: 0x100006260, symSize: 0x20 }
  - { offsetInCU: 0xDDB8, offset: 0xDDB8, size: 0x8, addend: 0x0, symName: __ZNKSt3__117__compressed_pairIP6PlayerNS_9allocatorIS1_EEE6secondB7v160006Ev, symObjAddr: 0x4EB0, symBinAddr: 0x100006280, symSize: 0x20 }
  - { offsetInCU: 0xDDDD, offset: 0xDDDD, size: 0x8, addend: 0x0, symName: __ZNKSt3__122__compressed_pair_elemINS_9allocatorI6PlayerEELi1ELb1EE5__getB7v160006Ev, symObjAddr: 0x4ED0, symBinAddr: 0x1000062A0, symSize: 0x10 }
  - { offsetInCU: 0xDE02, offset: 0xDE02, size: 0x8, addend: 0x0, symName: __ZNSt12length_errorC1B7v160006EPKc, symObjAddr: 0x4F50, symBinAddr: 0x100006320, symSize: 0x30 }
  - { offsetInCU: 0xDE39, offset: 0xDE39, size: 0x8, addend: 0x0, symName: __ZNSt12length_errorC2B7v160006EPKc, symObjAddr: 0x4F80, symBinAddr: 0x100006350, symSize: 0x40 }
  - { offsetInCU: 0xDE70, offset: 0xDE70, size: 0x8, addend: 0x0, symName: __ZNSt3__114__split_bufferI6PlayerRNS_9allocatorIS1_EEEC2EmmS4_, symObjAddr: 0x5010, symBinAddr: 0x1000063E0, symSize: 0xC0 }
  - { offsetInCU: 0xDEE3, offset: 0xDEE3, size: 0x8, addend: 0x0, symName: __ZNSt3__117__compressed_pairIP6PlayerRNS_9allocatorIS1_EEEC1B7v160006IDnS5_EEOT_OT0_, symObjAddr: 0x50D0, symBinAddr: 0x1000064A0, symSize: 0x30 }
  - { offsetInCU: 0xDF3A, offset: 0xDF3A, size: 0x8, addend: 0x0, symName: __ZNSt3__114__split_bufferI6PlayerRNS_9allocatorIS1_EEE7__allocB7v160006Ev, symObjAddr: 0x5140, symBinAddr: 0x100006510, symSize: 0x20 }
  - { offsetInCU: 0xDF5F, offset: 0xDF5F, size: 0x8, addend: 0x0, symName: __ZNSt3__114__split_bufferI6PlayerRNS_9allocatorIS1_EEE9__end_capB7v160006Ev, symObjAddr: 0x5160, symBinAddr: 0x100006530, symSize: 0x20 }
  - { offsetInCU: 0xDF84, offset: 0xDF84, size: 0x8, addend: 0x0, symName: __ZNSt3__117__compressed_pairIP6PlayerRNS_9allocatorIS1_EEEC2B7v160006IDnS5_EEOT_OT0_, symObjAddr: 0x5180, symBinAddr: 0x100006550, symSize: 0x40 }
  - { offsetInCU: 0xDFDB, offset: 0xDFDB, size: 0x8, addend: 0x0, symName: __ZNSt3__122__compressed_pair_elemIRNS_9allocatorI6PlayerEELi1ELb0EEC2B7v160006IS4_vEEOT_, symObjAddr: 0x51C0, symBinAddr: 0x100006590, symSize: 0x20 }
  - { offsetInCU: 0xE01C, offset: 0xE01C, size: 0x8, addend: 0x0, symName: __ZNSt3__19allocatorI6PlayerE8allocateB7v160006Em, symObjAddr: 0x51E0, symBinAddr: 0x1000065B0, symSize: 0x80 }
  - { offsetInCU: 0xE04F, offset: 0xE04F, size: 0x8, addend: 0x0, symName: __ZNSt3__117__compressed_pairIP6PlayerRNS_9allocatorIS1_EEE6secondB7v160006Ev, symObjAddr: 0x5260, symBinAddr: 0x100006630, symSize: 0x20 }
  - { offsetInCU: 0xE074, offset: 0xE074, size: 0x8, addend: 0x0, symName: __ZNSt3__122__compressed_pair_elemIRNS_9allocatorI6PlayerEELi1ELb0EE5__getB7v160006Ev, symObjAddr: 0x5280, symBinAddr: 0x100006650, symSize: 0x20 }
  - { offsetInCU: 0xE099, offset: 0xE099, size: 0x8, addend: 0x0, symName: __ZNSt3__117__compressed_pairIP6PlayerRNS_9allocatorIS1_EEE5firstB7v160006Ev, symObjAddr: 0x52A0, symBinAddr: 0x100006670, symSize: 0x20 }
  - { offsetInCU: 0xE0BE, offset: 0xE0BE, size: 0x8, addend: 0x0, symName: __ZNSt3__116reverse_iteratorIP6PlayerEC1B7v160006ES2_, symObjAddr: 0x5450, symBinAddr: 0x100006820, symSize: 0x30 }
  - { offsetInCU: 0xE0F5, offset: 0xE0F5, size: 0x8, addend: 0x0, symName: __ZNKSt3__116reverse_iteratorIP6PlayerE4baseB7v160006Ev, symObjAddr: 0x5480, symBinAddr: 0x100006850, symSize: 0x20 }
  - { offsetInCU: 0xE11A, offset: 0xE11A, size: 0x8, addend: 0x0, symName: __ZNKSt3__16vectorI6PlayerNS_9allocatorIS1_EEE14__annotate_newB7v160006Em, symObjAddr: 0x54E0, symBinAddr: 0x1000068B0, symSize: 0xA0 }
  - { offsetInCU: 0xE14E, offset: 0xE14E, size: 0x8, addend: 0x0, symName: __ZNSt3__129_AllocatorDestroyRangeReverseINS_9allocatorI6PlayerEENS_16reverse_iteratorIPS2_EEEC1B7v160006ERS3_RS6_S9_, symObjAddr: 0x55F0, symBinAddr: 0x1000069C0, symSize: 0x40 }
  - { offsetInCU: 0xE1A4, offset: 0xE1A4, size: 0x8, addend: 0x0, symName: __ZNKSt3__116reverse_iteratorIP6PlayerEdeB7v160006Ev, symObjAddr: 0x5690, symBinAddr: 0x100006A60, symSize: 0x30 }
  - { offsetInCU: 0xE1D7, offset: 0xE1D7, size: 0x8, addend: 0x0, symName: __ZNSt3__116reverse_iteratorIP6PlayerEppB7v160006Ev, symObjAddr: 0x56C0, symBinAddr: 0x100006A90, symSize: 0x20 }
  - { offsetInCU: 0xE1FC, offset: 0xE1FC, size: 0x8, addend: 0x0, symName: __ZNSt3__128__exception_guard_exceptionsINS_29_AllocatorDestroyRangeReverseINS_9allocatorI6PlayerEENS_16reverse_iteratorIPS3_EEEEE10__completeB7v160006Ev, symObjAddr: 0x56E0, symBinAddr: 0x100006AB0, symSize: 0x20 }
  - { offsetInCU: 0xE221, offset: 0xE221, size: 0x8, addend: 0x0, symName: __ZNSt3__128__exception_guard_exceptionsINS_29_AllocatorDestroyRangeReverseINS_9allocatorI6PlayerEENS_16reverse_iteratorIPS3_EEEEED1B7v160006Ev, symObjAddr: 0x5700, symBinAddr: 0x100006AD0, symSize: 0x20 }
  - { offsetInCU: 0xE24A, offset: 0xE24A, size: 0x8, addend: 0x0, symName: __ZNSt3__128__exception_guard_exceptionsINS_29_AllocatorDestroyRangeReverseINS_9allocatorI6PlayerEENS_16reverse_iteratorIPS3_EEEEEC1B7v160006ES8_, symObjAddr: 0x5720, symBinAddr: 0x100006AF0, symSize: 0x40 }
  - { offsetInCU: 0xE281, offset: 0xE281, size: 0x8, addend: 0x0, symName: __ZNSt3__128__exception_guard_exceptionsINS_29_AllocatorDestroyRangeReverseINS_9allocatorI6PlayerEENS_16reverse_iteratorIPS3_EEEEEC2B7v160006ES8_, symObjAddr: 0x5760, symBinAddr: 0x100006B30, symSize: 0x30 }
  - { offsetInCU: 0xE2B8, offset: 0xE2B8, size: 0x8, addend: 0x0, symName: __ZNSt3__129_AllocatorDestroyRangeReverseINS_9allocatorI6PlayerEENS_16reverse_iteratorIPS2_EEEC2B7v160006ERS3_RS6_S9_, symObjAddr: 0x5790, symBinAddr: 0x100006B60, symSize: 0x40 }
  - { offsetInCU: 0xE313, offset: 0xE313, size: 0x8, addend: 0x0, symName: __ZNSt3__119__to_address_helperINS_16reverse_iteratorIP6PlayerEEvE6__callB7v160006ERKS4_, symObjAddr: 0x57D0, symBinAddr: 0x100006BA0, symSize: 0x50 }
  - { offsetInCU: 0xE336, offset: 0xE336, size: 0x8, addend: 0x0, symName: __ZNKSt3__116reverse_iteratorIP6PlayerEptB7v160006Ev, symObjAddr: 0x5820, symBinAddr: 0x100006BF0, symSize: 0x20 }
  - { offsetInCU: 0xE35B, offset: 0xE35B, size: 0x8, addend: 0x0, symName: __ZNSt3__128__exception_guard_exceptionsINS_29_AllocatorDestroyRangeReverseINS_9allocatorI6PlayerEENS_16reverse_iteratorIPS3_EEEEED2B7v160006Ev, symObjAddr: 0x5840, symBinAddr: 0x100006C10, symSize: 0x30 }
  - { offsetInCU: 0xE384, offset: 0xE384, size: 0x8, addend: 0x0, symName: __ZNKSt3__129_AllocatorDestroyRangeReverseINS_9allocatorI6PlayerEENS_16reverse_iteratorIPS2_EEEclB7v160006Ev, symObjAddr: 0x5870, symBinAddr: 0x100006C40, symSize: 0xF0 }
  - { offsetInCU: 0xE3AA, offset: 0xE3AA, size: 0x8, addend: 0x0, symName: __ZNSt3__116reverse_iteratorINS0_IP6PlayerEEEC1B7v160006ES3_, symObjAddr: 0x59D0, symBinAddr: 0x100006DA0, symSize: 0x30 }
  - { offsetInCU: 0xE3E1, offset: 0xE3E1, size: 0x8, addend: 0x0, symName: __ZNSt3__116reverse_iteratorINS0_IP6PlayerEEEppB7v160006Ev, symObjAddr: 0x5A70, symBinAddr: 0x100006E40, symSize: 0x30 }
  - { offsetInCU: 0xE406, offset: 0xE406, size: 0x8, addend: 0x0, symName: __ZNKSt3__116reverse_iteratorINS0_IP6PlayerEEE4baseB7v160006Ev, symObjAddr: 0x5AA0, symBinAddr: 0x100006E70, symSize: 0x20 }
  - { offsetInCU: 0xE430, offset: 0xE430, size: 0x8, addend: 0x0, symName: __ZNSt3__119__to_address_helperINS_16reverse_iteratorINS1_IP6PlayerEEEEvE6__callB7v160006ERKS5_, symObjAddr: 0x5AC0, symBinAddr: 0x100006E90, symSize: 0x50 }
  - { offsetInCU: 0xE453, offset: 0xE453, size: 0x8, addend: 0x0, symName: __ZNKSt3__116reverse_iteratorINS0_IP6PlayerEEEptB7v160006Ev, symObjAddr: 0x5B10, symBinAddr: 0x100006EE0, symSize: 0x20 }
  - { offsetInCU: 0xE478, offset: 0xE478, size: 0x8, addend: 0x0, symName: __ZNKSt3__116reverse_iteratorINS0_IP6PlayerEEEdeB7v160006Ev, symObjAddr: 0x5B30, symBinAddr: 0x100006F00, symSize: 0x40 }
  - { offsetInCU: 0xE4AB, offset: 0xE4AB, size: 0x8, addend: 0x0, symName: __ZNSt3__116reverse_iteratorIP6PlayerEmmB7v160006Ev, symObjAddr: 0x5B70, symBinAddr: 0x100006F40, symSize: 0x20 }
  - { offsetInCU: 0xE4D0, offset: 0xE4D0, size: 0x8, addend: 0x0, symName: __ZNSt3__116reverse_iteratorINS0_IP6PlayerEEEC2B7v160006ES3_, symObjAddr: 0x5B90, symBinAddr: 0x100006F60, symSize: 0x40 }
  - { offsetInCU: 0xE507, offset: 0xE507, size: 0x8, addend: 0x0, symName: __ZNSt3__116reverse_iteratorIP6PlayerEC2B7v160006ES2_, symObjAddr: 0x5BD0, symBinAddr: 0x100006FA0, symSize: 0x30 }
  - { offsetInCU: 0xE53E, offset: 0xE53E, size: 0x8, addend: 0x0, symName: __ZNSt3__114__split_bufferI6PlayerRNS_9allocatorIS1_EEED2Ev, symObjAddr: 0x5C00, symBinAddr: 0x100006FD0, symSize: 0x60 }
  - { offsetInCU: 0xE569, offset: 0xE569, size: 0x8, addend: 0x0, symName: __ZNSt3__114__split_bufferI6PlayerRNS_9allocatorIS1_EEE5clearB7v160006Ev, symObjAddr: 0x5C60, symBinAddr: 0x100007030, symSize: 0x20 }
  - { offsetInCU: 0xE58E, offset: 0xE58E, size: 0x8, addend: 0x0, symName: __ZNKSt3__114__split_bufferI6PlayerRNS_9allocatorIS1_EEE8capacityB7v160006Ev, symObjAddr: 0x5C80, symBinAddr: 0x100007050, symSize: 0x40 }
  - { offsetInCU: 0xE5B3, offset: 0xE5B3, size: 0x8, addend: 0x0, symName: __ZNSt3__114__split_bufferI6PlayerRNS_9allocatorIS1_EEE17__destruct_at_endB7v160006EPS1_, symObjAddr: 0x5CC0, symBinAddr: 0x100007090, symSize: 0x30 }
  - { offsetInCU: 0xE5E5, offset: 0xE5E5, size: 0x8, addend: 0x0, symName: __ZNSt3__114__split_bufferI6PlayerRNS_9allocatorIS1_EEE17__destruct_at_endB7v160006EPS1_NS_17integral_constantIbLb0EEE, symObjAddr: 0x5CF0, symBinAddr: 0x1000070C0, symSize: 0x80 }
  - { offsetInCU: 0xE625, offset: 0xE625, size: 0x8, addend: 0x0, symName: __ZNKSt3__114__split_bufferI6PlayerRNS_9allocatorIS1_EEE9__end_capB7v160006Ev, symObjAddr: 0x5D70, symBinAddr: 0x100007140, symSize: 0x20 }
  - { offsetInCU: 0xE64A, offset: 0xE64A, size: 0x8, addend: 0x0, symName: __ZNKSt3__117__compressed_pairIP6PlayerRNS_9allocatorIS1_EEE5firstB7v160006Ev, symObjAddr: 0x5D90, symBinAddr: 0x100007160, symSize: 0x20 }
  - { offsetInCU: 0xE66F, offset: 0xE66F, size: 0x8, addend: 0x0, symName: __ZNKSt3__16vectorI6PlayerNS_9allocatorIS1_EEE11__make_iterB7v160006EPKS1_, symObjAddr: 0x5DB0, symBinAddr: 0x100007180, symSize: 0x30 }
  - { offsetInCU: 0xE6A3, offset: 0xE6A3, size: 0x8, addend: 0x0, symName: __ZNSt3__111__wrap_iterIPK6PlayerEC1B7v160006EPKvS3_, symObjAddr: 0x5DE0, symBinAddr: 0x1000071B0, symSize: 0x30 }
  - { offsetInCU: 0xE6E8, offset: 0xE6E8, size: 0x8, addend: 0x0, symName: __ZNSt3__111__wrap_iterIPK6PlayerEC2B7v160006EPKvS3_, symObjAddr: 0x5E10, symBinAddr: 0x1000071E0, symSize: 0x20 }
  - { offsetInCU: 0xE72D, offset: 0xE72D, size: 0x8, addend: 0x0, symName: __ZNKSt3__111__wrap_iterIPK6PlayerE4baseB7v160006Ev, symObjAddr: 0x5E70, symBinAddr: 0x100007240, symSize: 0x20 }
  - { offsetInCU: 0xE752, offset: 0xE752, size: 0x8, addend: 0x0, symName: __ZNSt3__111char_traitsIcE7compareEPKcS3_m, symObjAddr: 0x5E90, symBinAddr: 0x100007260, symSize: 0x70 }
  - { offsetInCU: 0xE791, offset: 0xE791, size: 0x8, addend: 0x0, symName: __ZNSt3__113basic_ostreamIcNS_11char_traitsIcEEEC2B7v160006EPNS_15basic_streambufIcS2_EE, symObjAddr: 0x5F30, symBinAddr: 0x100007300, symSize: 0x47 }
...
