---
triple:          'x86_64-apple-darwin'
binary-path:     '/Users/mityakim/Desktop/Learn_C/8-17/output/main'
relocations:
  - { offsetInCU: 0x4827, offset: 0x4827, size: 0x8, addend: 0x0, symName: __ZNSt3__124__put_character_sequenceB7v160006IcNS_11char_traitsIcEEEERNS_13basic_ostreamIT_T0_EES7_PKS4_m, symObjAddr: 0x2210, symBinAddr: 0x100005160, symSize: 0x1F0 }
  - { offsetInCU: 0x79C0, offset: 0x79C0, size: 0x8, addend: 0x0, symName: __ZNSt3__1lsB7v160006INS_11char_traitsIcEEEERNS_13basic_ostreamIcT_EES6_PKc, symObjAddr: 0x9A0, symBinAddr: 0x1000038F0, symSize: 0x40 }
  - { offsetInCU: 0x7A06, offset: 0x7A06, size: 0x8, addend: 0x0, symName: __ZNSt3__1rsB7v160006IcNS_11char_traitsIcEENS_9allocatorIcEEEERNS_13basic_istreamIT_T0_EES9_RNS_12basic_stringIS6_S7_T1_EE, symObjAddr: 0xA00, symBinAddr: 0x100003950, symSize: 0x2E0 }
  - { offsetInCU: 0x7AE0, offset: 0x7AE0, size: 0x8, addend: 0x0, symName: __ZNSt3__1neB7v160006IP8EmployeeEEbRKNS_11__wrap_iterIT_EES7_, symObjAddr: 0xE90, symBinAddr: 0x100003DE0, symSize: 0x30 }
  - { offsetInCU: 0x7B23, offset: 0x7B23, size: 0x8, addend: 0x0, symName: __ZNSt3__13minB7v160006IdEERKT_S3_S3_, symObjAddr: 0xEE0, symBinAddr: 0x100003E30, symSize: 0x30 }
  - { offsetInCU: 0x7B66, offset: 0x7B66, size: 0x8, addend: 0x0, symName: __ZNSt3__13maxB7v160006IdEERKT_S3_S3_, symObjAddr: 0xF10, symBinAddr: 0x100003E60, symSize: 0x30 }
  - { offsetInCU: 0x7BA9, offset: 0x7BA9, size: 0x8, addend: 0x0, symName: __ZNSt3__1neB7v160006IPK8EmployeeEEbRKNS_11__wrap_iterIT_EES8_, symObjAddr: 0xFC0, symBinAddr: 0x100003F10, symSize: 0x30 }
  - { offsetInCU: 0x7BEC, offset: 0x7BEC, size: 0x8, addend: 0x0, symName: __ZNSt3__14endlB7v160006IcNS_11char_traitsIcEEEERNS_13basic_ostreamIT_T0_EES7_, symObjAddr: 0x1080, symBinAddr: 0x100003FD0, symSize: 0x50 }
  - { offsetInCU: 0x7C2C, offset: 0x7C2C, size: 0x8, addend: 0x0, symName: __ZNSt3__1lsB7v160006IcNS_11char_traitsIcEEEERNS_13basic_ostreamIT_T0_EES7_RKNS_8__iom_t6E, symObjAddr: 0x10D0, symBinAddr: 0x100004020, symSize: 0x40 }
  - { offsetInCU: 0x7C7B, offset: 0x7C7B, size: 0x8, addend: 0x0, symName: __ZNSt3__1lsB7v160006IcNS_11char_traitsIcEEEERNS_13basic_ostreamIT_T0_EES7_RKNS_8__iom_t5E, symObjAddr: 0x1110, symBinAddr: 0x100004060, symSize: 0x40 }
  - { offsetInCU: 0x7CC7, offset: 0x7CC7, size: 0x8, addend: 0x0, symName: __ZNSt3__1lsB7v160006IcNS_11char_traitsIcEENS_9allocatorIcEEEERNS_13basic_ostreamIT_T0_EES9_RKNS_12basic_stringIS6_S7_T1_EE, symObjAddr: 0x1150, symBinAddr: 0x1000040A0, symSize: 0x50 }
  - { offsetInCU: 0x7D1F, offset: 0x7D1F, size: 0x8, addend: 0x0, symName: __ZNSt3__14leftB7v160006ERNS_8ios_baseE, symObjAddr: 0x11D0, symBinAddr: 0x100004120, symSize: 0x30 }
  - { offsetInCU: 0x7D4D, offset: 0x7D4D, size: 0x8, addend: 0x0, symName: __ZNSt3__14setwB7v160006Ei, symObjAddr: 0x1200, symBinAddr: 0x100004150, symSize: 0x20 }
  - { offsetInCU: 0x7D7B, offset: 0x7D7B, size: 0x8, addend: 0x0, symName: __ZNSt3__15fixedB7v160006ERNS_8ios_baseE, symObjAddr: 0x1220, symBinAddr: 0x100004170, symSize: 0x30 }
  - { offsetInCU: 0x7DA9, offset: 0x7DA9, size: 0x8, addend: 0x0, symName: __ZNSt3__112setprecisionB7v160006Ei, symObjAddr: 0x1250, symBinAddr: 0x1000041A0, symSize: 0x20 }
  - { offsetInCU: 0x7DD5, offset: 0x7DD5, size: 0x8, addend: 0x0, symName: __ZNSt3__119__debug_db_insert_cB7v160006INS_12basic_stringIcNS_11char_traitsIcEENS_9allocatorIcEEEEEEvPT_, symObjAddr: 0x1320, symBinAddr: 0x100004270, symSize: 0x10 }
  - { offsetInCU: 0x7E06, offset: 0x7E06, size: 0x8, addend: 0x0, symName: __ZNSt3__130__libcpp_is_constant_evaluatedB7v160006Ev, symObjAddr: 0x14A0, symBinAddr: 0x1000043F0, symSize: 0x10 }
  - { offsetInCU: 0x7E23, offset: 0x7E23, size: 0x8, addend: 0x0, symName: __ZNSt3__117__libcpp_allocateB7v160006Emm, symObjAddr: 0x1780, symBinAddr: 0x1000046D0, symSize: 0x20 }
  - { offsetInCU: 0x7E60, offset: 0x7E60, size: 0x8, addend: 0x0, symName: __ZNSt3__121__libcpp_operator_newB7v160006IJmEEEPvDpT_, symObjAddr: 0x17C0, symBinAddr: 0x100004710, symSize: 0x20 }
  - { offsetInCU: 0x7E99, offset: 0x7E99, size: 0x8, addend: 0x0, symName: __ZNSt3__119__debug_db_insert_cB7v160006INS_6vectorI8EmployeeNS_9allocatorIS2_EEEEEEvPT_, symObjAddr: 0x1A80, symBinAddr: 0x1000049D0, symSize: 0x10 }
  - { offsetInCU: 0x7ECA, offset: 0x7ECA, size: 0x8, addend: 0x0, symName: __ZNSt3__118__debug_db_erase_cB7v160006INS_6vectorI8EmployeeNS_9allocatorIS2_EEEEEEvPT_, symObjAddr: 0x1D00, symBinAddr: 0x100004C50, symSize: 0x10 }
  - { offsetInCU: 0x7EFB, offset: 0x7EFB, size: 0x8, addend: 0x0, symName: __ZNSt3__112__to_addressB7v160006I8EmployeeEEPT_S3_, symObjAddr: 0x1E00, symBinAddr: 0x100004D50, symSize: 0x10 }
  - { offsetInCU: 0x7F30, offset: 0x7F30, size: 0x8, addend: 0x0, symName: __ZNSt3__119__libcpp_deallocateB7v160006EPvmm, symObjAddr: 0x1F70, symBinAddr: 0x100004EC0, symSize: 0x30 }
  - { offsetInCU: 0x7F78, offset: 0x7F78, size: 0x8, addend: 0x0, symName: __ZNSt3__127__do_deallocate_handle_sizeB7v160006IJEEEvPvmDpT_, symObjAddr: 0x1FA0, symBinAddr: 0x100004EF0, symSize: 0x20 }
  - { offsetInCU: 0x7FB6, offset: 0x7FB6, size: 0x8, addend: 0x0, symName: __ZNSt3__124__libcpp_operator_deleteB7v160006IJPvEEEvDpT_, symObjAddr: 0x1FC0, symBinAddr: 0x100004F10, symSize: 0x20 }
  - { offsetInCU: 0x7FEB, offset: 0x7FEB, size: 0x8, addend: 0x0, symName: __ZNSt3__116__pad_and_outputB7v160006IcNS_11char_traitsIcEEEENS_19ostreambuf_iteratorIT_T0_EES6_PKS4_S8_S8_RNS_8ios_baseES4_, symObjAddr: 0x2460, symBinAddr: 0x1000053B0, symSize: 0x220 }
  - { offsetInCU: 0x80BB, offset: 0x80BB, size: 0x8, addend: 0x0, symName: __ZNSt3__112__to_addressB7v160006IKcEEPT_S3_, symObjAddr: 0x2890, symBinAddr: 0x1000057E0, symSize: 0x10 }
  - { offsetInCU: 0x8123, offset: 0x8123, size: 0x8, addend: 0x0, symName: __ZNSt3__19use_facetB7v160006INS_5ctypeIcEEEERKT_RKNS_6localeE, symObjAddr: 0x2B30, symBinAddr: 0x100005A80, symSize: 0x30 }
  - { offsetInCU: 0x8503, offset: 0x8503, size: 0x8, addend: 0x0, symName: __ZNSt3__118__constexpr_strlenB7v160006EPKc, symObjAddr: 0x2B90, symBinAddr: 0x100005AE0, symSize: 0x20 }
  - { offsetInCU: 0x8730, offset: 0x8730, size: 0x8, addend: 0x0, symName: __ZNSt3__125__debug_db_invalidate_allB7v160006INS_12basic_stringIcNS_11char_traitsIcEENS_9allocatorIcEEEEEEvPT_, symObjAddr: 0x2EC0, symBinAddr: 0x100005E10, symSize: 0x10 }
  - { offsetInCU: 0x8996, offset: 0x8996, size: 0x8, addend: 0x0, symName: __ZNSt3__13maxB7v160006ImEERKT_S3_S3_, symObjAddr: 0x3690, symBinAddr: 0x1000065E0, symSize: 0x30 }
  - { offsetInCU: 0x89D9, offset: 0x89D9, size: 0x8, addend: 0x0, symName: __ZNSt3__13minB7v160006ImEERKT_S3_S3_, symObjAddr: 0x36C0, symBinAddr: 0x100006610, symSize: 0x30 }
  - { offsetInCU: 0x8A1C, offset: 0x8A1C, size: 0x8, addend: 0x0, symName: __ZNSt3__13minB7v160006ImNS_6__lessImmEEEERKT_S5_S5_T0_, symObjAddr: 0x3730, symBinAddr: 0x100006680, symSize: 0x50 }
  - { offsetInCU: 0x8AB1, offset: 0x8AB1, size: 0x8, addend: 0x0, symName: __ZNSt3__120__throw_length_errorB7v160006EPKc, symObjAddr: 0x3800, symBinAddr: 0x100006750, symSize: 0x70 }
  - { offsetInCU: 0x8AD9, offset: 0x8AD9, size: 0x8, addend: 0x0, symName: __ZNSt3__13maxB7v160006ImNS_6__lessImmEEEERKT_S5_S5_T0_, symObjAddr: 0x38E0, symBinAddr: 0x100006830, symSize: 0x50 }
  - { offsetInCU: 0x8B33, offset: 0x8B33, size: 0x8, addend: 0x0, symName: __ZNSt3__119__allocate_at_leastB7v160006INS_9allocatorI8EmployeeEEEENS_19__allocation_resultINS_16allocator_traitsIT_E7pointerEEERS6_m, symObjAddr: 0x3A20, symBinAddr: 0x100006970, symSize: 0x40 }
  - { offsetInCU: 0x8B76, offset: 0x8B76, size: 0x8, addend: 0x0, symName: __ZNSt3__142__uninitialized_allocator_move_if_noexceptB7v160006INS_9allocatorI8EmployeeEENS_16reverse_iteratorIPS2_EES6_S6_EET2_RT_T0_T1_S7_, symObjAddr: 0x3BE0, symBinAddr: 0x100006B30, symSize: 0x190 }
  - { offsetInCU: 0x8C15, offset: 0x8C15, size: 0x8, addend: 0x0, symName: __ZNSt3__14swapB7v160006IP8EmployeeEEvRT_S4_, symObjAddr: 0x3DC0, symBinAddr: 0x100006D10, symSize: 0x40 }
  - { offsetInCU: 0x8C66, offset: 0x8C66, size: 0x8, addend: 0x0, symName: __ZNSt3__125__debug_db_invalidate_allB7v160006INS_6vectorI8EmployeeNS_9allocatorIS2_EEEEEEvPT_, symObjAddr: 0x3EA0, symBinAddr: 0x100006DF0, symSize: 0x10 }
  - { offsetInCU: 0x8C97, offset: 0x8C97, size: 0x8, addend: 0x0, symName: __ZNSt3__122__make_exception_guardB7v160006INS_29_AllocatorDestroyRangeReverseINS_9allocatorI8EmployeeEENS_16reverse_iteratorIPS3_EEEEEENS_28__exception_guard_exceptionsIT_EESA_, symObjAddr: 0x3EB0, symBinAddr: 0x100006E00, symSize: 0x60 }
  - { offsetInCU: 0x8CCC, offset: 0x8CCC, size: 0x8, addend: 0x0, symName: __ZNSt3__1neB7v160006IP8EmployeeS2_EEbRKNS_16reverse_iteratorIT_EERKNS3_IT0_EE, symObjAddr: 0x3F50, symBinAddr: 0x100006EA0, symSize: 0x40 }
  - { offsetInCU: 0x8D18, offset: 0x8D18, size: 0x8, addend: 0x0, symName: __ZNSt3__112__to_addressB7v160006INS_16reverse_iteratorIP8EmployeeEEvEENS_5decayIDTclsr19__to_address_helperIT_EE6__callclsr3stdE7declvalIRKS6_EEEEE4typeES8_, symObjAddr: 0x3F90, symBinAddr: 0x100006EE0, symSize: 0x20 }
  - { offsetInCU: 0x8D77, offset: 0x8D77, size: 0x8, addend: 0x0, symName: __ZNSt3__119__allocator_destroyB7v160006INS_9allocatorI8EmployeeEENS_16reverse_iteratorINS4_IPS2_EEEES7_EEvRT_T0_T1_, symObjAddr: 0x4280, symBinAddr: 0x1000071D0, symSize: 0x70 }
  - { offsetInCU: 0x8DDA, offset: 0x8DDA, size: 0x8, addend: 0x0, symName: __ZNSt3__1neB7v160006INS_16reverse_iteratorIP8EmployeeEES4_EEbRKNS1_IT_EERKNS1_IT0_EE, symObjAddr: 0x4320, symBinAddr: 0x100007270, symSize: 0x50 }
  - { offsetInCU: 0x8E26, offset: 0x8E26, size: 0x8, addend: 0x0, symName: __ZNSt3__112__to_addressB7v160006INS_16reverse_iteratorINS1_IP8EmployeeEEEEvEENS_5decayIDTclsr19__to_address_helperIT_EE6__callclsr3stdE7declvalIRKS7_EEEEE4typeES9_, symObjAddr: 0x4370, symBinAddr: 0x1000072C0, symSize: 0x20 }
  - { offsetInCU: 0x8E85, offset: 0x8E85, size: 0x8, addend: 0x0, symName: __ZNSt3__1eqB7v160006IP8EmployeeEEbRKNS_11__wrap_iterIT_EES7_, symObjAddr: 0x4750, symBinAddr: 0x1000076A0, symSize: 0x40 }
  - { offsetInCU: 0x8EC8, offset: 0x8EC8, size: 0x8, addend: 0x0, symName: __ZNSt3__13minB7v160006IdNS_6__lessIddEEEERKT_S5_S5_T0_, symObjAddr: 0x47B0, symBinAddr: 0x100007700, symSize: 0x50 }
  - { offsetInCU: 0x8F5D, offset: 0x8F5D, size: 0x8, addend: 0x0, symName: __ZNSt3__13maxB7v160006IdNS_6__lessIddEEEERKT_S5_S5_T0_, symObjAddr: 0x4830, symBinAddr: 0x100007780, symSize: 0x50 }
  - { offsetInCU: 0x8FB7, offset: 0x8FB7, size: 0x8, addend: 0x0, symName: __ZNSt3__1eqB7v160006IPK8EmployeeEEbRKNS_11__wrap_iterIT_EES8_, symObjAddr: 0x4900, symBinAddr: 0x100007850, symSize: 0x40 }
  - { offsetInCU: 0x91B2, offset: 0x91B2, size: 0x8, addend: 0x0, symName: __ZSt28__throw_bad_array_new_lengthB7v160006v, symObjAddr: 0x1740, symBinAddr: 0x100004690, symSize: 0x40 }
  - { offsetInCU: 0x97C1, offset: 0x97C1, size: 0x8, addend: 0x0, symName: __ZNSt3__16vectorI8EmployeeNS_9allocatorIS1_EEE26__swap_out_circular_bufferERNS_14__split_bufferIS1_RS3_EE, symObjAddr: 0x34B0, symBinAddr: 0x100006400, symSize: 0x130 }
  - { offsetInCU: 0xBA7D, offset: 0xBA7D, size: 0x8, addend: 0x0, symName: _main, symObjAddr: 0x0, symBinAddr: 0x100002F50, symSize: 0xC0 }
  - { offsetInCU: 0xBAB4, offset: 0xBAB4, size: 0x8, addend: 0x0, symName: __ZNSt3__16vectorI8EmployeeNS_9allocatorIS1_EEEC1B7v160006Ev, symObjAddr: 0xC0, symBinAddr: 0x100003010, symSize: 0x20 }
  - { offsetInCU: 0xBADC, offset: 0xBADC, size: 0x8, addend: 0x0, symName: __Z8readDataRNSt3__16vectorI8EmployeeNS_9allocatorIS1_EEEE, symObjAddr: 0xE0, symBinAddr: 0x100003030, symSize: 0x210 }
  - { offsetInCU: 0xBB3E, offset: 0xBB3E, size: 0x8, addend: 0x0, symName: __Z18calculateWeeklyPayRNSt3__16vectorI8EmployeeNS_9allocatorIS1_EEEE, symObjAddr: 0x2F0, symBinAddr: 0x100003240, symSize: 0x140 }
  - { offsetInCU: 0xBC11, offset: 0xBC11, size: 0x8, addend: 0x0, symName: __Z22calculateAverageSalaryRKNSt3__16vectorI8EmployeeNS_9allocatorIS1_EEEE, symObjAddr: 0x430, symBinAddr: 0x100003380, symSize: 0xD0 }
  - { offsetInCU: 0xBC9E, offset: 0xBC9E, size: 0x8, addend: 0x0, symName: __Z17printEmployeeDataRKNSt3__16vectorI8EmployeeNS_9allocatorIS1_EEEEd, symObjAddr: 0x500, symBinAddr: 0x100003450, symSize: 0x2D0 }
  - { offsetInCU: 0xBD7F, offset: 0xBD7F, size: 0x8, addend: 0x0, symName: __ZNSt3__16vectorI8EmployeeNS_9allocatorIS1_EEED1B7v160006Ev, symObjAddr: 0x7D0, symBinAddr: 0x100003720, symSize: 0x20 }
  - { offsetInCU: 0xBEC9, offset: 0xBEC9, size: 0x8, addend: 0x0, symName: __ZNSt3__114basic_ifstreamIcNS_11char_traitsIcEEEC1EPKcj, symObjAddr: 0x800, symBinAddr: 0x100003750, symSize: 0x180 }
  - { offsetInCU: 0xBF12, offset: 0xBF12, size: 0x8, addend: 0x0, symName: __ZNKSt3__19basic_iosIcNS_11char_traitsIcEEEntB7v160006Ev, symObjAddr: 0x980, symBinAddr: 0x1000038D0, symSize: 0x20 }
  - { offsetInCU: 0xBF3C, offset: 0xBF3C, size: 0x8, addend: 0x0, symName: __ZN8EmployeeC1Ev, symObjAddr: 0x9E0, symBinAddr: 0x100003930, symSize: 0x20 }
  - { offsetInCU: 0xBF66, offset: 0xBF66, size: 0x8, addend: 0x0, symName: __ZNSt3__16vectorI8EmployeeNS_9allocatorIS1_EEE9push_backB7v160006ERKS1_, symObjAddr: 0xCE0, symBinAddr: 0x100003C30, symSize: 0x60 }
  - { offsetInCU: 0xBF9C, offset: 0xBF9C, size: 0x8, addend: 0x0, symName: __ZN8EmployeeD1Ev, symObjAddr: 0xD40, symBinAddr: 0x100003C90, symSize: 0x20 }
  - { offsetInCU: 0xBFC6, offset: 0xBFC6, size: 0x8, addend: 0x0, symName: __ZNSt3__114basic_ifstreamIcNS_11char_traitsIcEEE5closeEv, symObjAddr: 0xD60, symBinAddr: 0x100003CB0, symSize: 0x50 }
  - { offsetInCU: 0xBFF2, offset: 0xBFF2, size: 0x8, addend: 0x0, symName: __ZNSt3__114basic_ifstreamIcNS_11char_traitsIcEEED1Ev, symObjAddr: 0xDB0, symBinAddr: 0x100003D00, symSize: 0x80 }
  - { offsetInCU: 0xC01D, offset: 0xC01D, size: 0x8, addend: 0x0, symName: __ZNSt3__16vectorI8EmployeeNS_9allocatorIS1_EEE5beginB7v160006Ev, symObjAddr: 0xE30, symBinAddr: 0x100003D80, symSize: 0x30 }
  - { offsetInCU: 0xC043, offset: 0xC043, size: 0x8, addend: 0x0, symName: __ZNSt3__16vectorI8EmployeeNS_9allocatorIS1_EEE3endB7v160006Ev, symObjAddr: 0xE60, symBinAddr: 0x100003DB0, symSize: 0x30 }
  - { offsetInCU: 0xC06A, offset: 0xC06A, size: 0x8, addend: 0x0, symName: __ZNKSt3__111__wrap_iterIP8EmployeeEdeB7v160006Ev, symObjAddr: 0xEC0, symBinAddr: 0x100003E10, symSize: 0x20 }
  - { offsetInCU: 0xC08F, offset: 0xC08F, size: 0x8, addend: 0x0, symName: __ZNSt3__111__wrap_iterIP8EmployeeEppB7v160006Ev, symObjAddr: 0xF40, symBinAddr: 0x100003E90, symSize: 0x20 }
  - { offsetInCU: 0xC0B3, offset: 0xC0B3, size: 0x8, addend: 0x0, symName: __ZNKSt3__16vectorI8EmployeeNS_9allocatorIS1_EEE5beginB7v160006Ev, symObjAddr: 0xF60, symBinAddr: 0x100003EB0, symSize: 0x30 }
  - { offsetInCU: 0xC0D9, offset: 0xC0D9, size: 0x8, addend: 0x0, symName: __ZNKSt3__16vectorI8EmployeeNS_9allocatorIS1_EEE3endB7v160006Ev, symObjAddr: 0xF90, symBinAddr: 0x100003EE0, symSize: 0x30 }
  - { offsetInCU: 0xC100, offset: 0xC100, size: 0x8, addend: 0x0, symName: __ZNKSt3__111__wrap_iterIPK8EmployeeEdeB7v160006Ev, symObjAddr: 0xFF0, symBinAddr: 0x100003F40, symSize: 0x20 }
  - { offsetInCU: 0xC125, offset: 0xC125, size: 0x8, addend: 0x0, symName: __ZNSt3__111__wrap_iterIPK8EmployeeEppB7v160006Ev, symObjAddr: 0x1010, symBinAddr: 0x100003F60, symSize: 0x20 }
  - { offsetInCU: 0xC14A, offset: 0xC14A, size: 0x8, addend: 0x0, symName: __ZNKSt3__16vectorI8EmployeeNS_9allocatorIS1_EEE4sizeB7v160006Ev, symObjAddr: 0x1030, symBinAddr: 0x100003F80, symSize: 0x30 }
  - { offsetInCU: 0xC16F, offset: 0xC16F, size: 0x8, addend: 0x0, symName: __ZNSt3__113basic_ostreamIcNS_11char_traitsIcEEElsB7v160006EPFRS3_S4_E, symObjAddr: 0x1060, symBinAddr: 0x100003FB0, symSize: 0x20 }
  - { offsetInCU: 0xC1A2, offset: 0xC1A2, size: 0x8, addend: 0x0, symName: __ZNSt3__113basic_ostreamIcNS_11char_traitsIcEEElsB7v160006EPFRNS_8ios_baseES5_E, symObjAddr: 0x11A0, symBinAddr: 0x1000040F0, symSize: 0x30 }
  - { offsetInCU: 0xC1D5, offset: 0xC1D5, size: 0x8, addend: 0x0, symName: __ZN8EmployeeC2Ev, symObjAddr: 0x1270, symBinAddr: 0x1000041C0, symSize: 0x20 }
  - { offsetInCU: 0xC200, offset: 0xC200, size: 0x8, addend: 0x0, symName: __ZNSt3__112basic_stringIcNS_11char_traitsIcEENS_9allocatorIcEEEC1B7v160006Ev, symObjAddr: 0x1290, symBinAddr: 0x1000041E0, symSize: 0x20 }
  - { offsetInCU: 0xC229, offset: 0xC229, size: 0x8, addend: 0x0, symName: __ZNSt3__112basic_stringIcNS_11char_traitsIcEENS_9allocatorIcEEEC2B7v160006Ev, symObjAddr: 0x12B0, symBinAddr: 0x100004200, symSize: 0x40 }
  - { offsetInCU: 0xC257, offset: 0xC257, size: 0x8, addend: 0x0, symName: __ZNSt3__117__compressed_pairINS_12basic_stringIcNS_11char_traitsIcEENS_9allocatorIcEEE5__repES5_EC1B7v160006INS_18__default_init_tagESA_EEOT_OT0_, symObjAddr: 0x12F0, symBinAddr: 0x100004240, symSize: 0x30 }
  - { offsetInCU: 0xC2AE, offset: 0xC2AE, size: 0x8, addend: 0x0, symName: __ZNSt3__112basic_stringIcNS_11char_traitsIcEENS_9allocatorIcEEE14__default_initB7v160006Ev, symObjAddr: 0x1330, symBinAddr: 0x100004280, symSize: 0xC0 }
  - { offsetInCU: 0xC300, offset: 0xC300, size: 0x8, addend: 0x0, symName: __ZNSt3__117__compressed_pairINS_12basic_stringIcNS_11char_traitsIcEENS_9allocatorIcEEE5__repES5_EC2B7v160006INS_18__default_init_tagESA_EEOT_OT0_, symObjAddr: 0x13F0, symBinAddr: 0x100004340, symSize: 0x30 }
  - { offsetInCU: 0xC357, offset: 0xC357, size: 0x8, addend: 0x0, symName: __ZNSt3__122__compressed_pair_elemINS_12basic_stringIcNS_11char_traitsIcEENS_9allocatorIcEEE5__repELi0ELb0EEC2B7v160006ENS_18__default_init_tagE, symObjAddr: 0x1420, symBinAddr: 0x100004370, symSize: 0x10 }
  - { offsetInCU: 0xC38B, offset: 0xC38B, size: 0x8, addend: 0x0, symName: __ZNSt3__122__compressed_pair_elemINS_9allocatorIcEELi1ELb1EEC2B7v160006ENS_18__default_init_tagE, symObjAddr: 0x1430, symBinAddr: 0x100004380, symSize: 0x20 }
  - { offsetInCU: 0xC3BF, offset: 0xC3BF, size: 0x8, addend: 0x0, symName: __ZNSt3__19allocatorIcEC2B7v160006Ev, symObjAddr: 0x1450, symBinAddr: 0x1000043A0, symSize: 0x20 }
  - { offsetInCU: 0xC3E8, offset: 0xC3E8, size: 0x8, addend: 0x0, symName: __ZNSt3__116__non_trivial_ifILb1ENS_9allocatorIcEEEC2B7v160006Ev, symObjAddr: 0x1470, symBinAddr: 0x1000043C0, symSize: 0x10 }
  - { offsetInCU: 0xC411, offset: 0xC411, size: 0x8, addend: 0x0, symName: __ZNSt3__117__compressed_pairINS_12basic_stringIcNS_11char_traitsIcEENS_9allocatorIcEEE5__repES5_E5firstB7v160006Ev, symObjAddr: 0x1480, symBinAddr: 0x1000043D0, symSize: 0x20 }
  - { offsetInCU: 0xC436, offset: 0xC436, size: 0x8, addend: 0x0, symName: __ZNSt3__112basic_stringIcNS_11char_traitsIcEENS_9allocatorIcEEE11__recommendB7v160006Em, symObjAddr: 0x14B0, symBinAddr: 0x100004400, symSize: 0x90 }
  - { offsetInCU: 0xC469, offset: 0xC469, size: 0x8, addend: 0x0, symName: __ZNSt3__116allocator_traitsINS_9allocatorIcEEE8allocateB7v160006ERS2_m, symObjAddr: 0x1540, symBinAddr: 0x100004490, symSize: 0x30 }
  - { offsetInCU: 0xC49C, offset: 0xC49C, size: 0x8, addend: 0x0, symName: __ZNSt3__112basic_stringIcNS_11char_traitsIcEENS_9allocatorIcEEE7__allocB7v160006Ev, symObjAddr: 0x1570, symBinAddr: 0x1000044C0, symSize: 0x20 }
  - { offsetInCU: 0xC4C1, offset: 0xC4C1, size: 0x8, addend: 0x0, symName: __ZNSt3__112basic_stringIcNS_11char_traitsIcEENS_9allocatorIcEEE16__begin_lifetimeB7v160006EPcm, symObjAddr: 0x1590, symBinAddr: 0x1000044E0, symSize: 0x10 }
  - { offsetInCU: 0xC4F4, offset: 0xC4F4, size: 0x8, addend: 0x0, symName: __ZNSt3__112basic_stringIcNS_11char_traitsIcEENS_9allocatorIcEEE18__set_long_pointerB7v160006EPc, symObjAddr: 0x15A0, symBinAddr: 0x1000044F0, symSize: 0x30 }
  - { offsetInCU: 0xC528, offset: 0xC528, size: 0x8, addend: 0x0, symName: __ZNSt3__112basic_stringIcNS_11char_traitsIcEENS_9allocatorIcEEE14__set_long_capB7v160006Em, symObjAddr: 0x15D0, symBinAddr: 0x100004520, symSize: 0x70 }
  - { offsetInCU: 0xC55C, offset: 0xC55C, size: 0x8, addend: 0x0, symName: __ZNSt3__112basic_stringIcNS_11char_traitsIcEENS_9allocatorIcEEE15__set_long_sizeB7v160006Em, symObjAddr: 0x1640, symBinAddr: 0x100004590, symSize: 0x30 }
  - { offsetInCU: 0xC590, offset: 0xC590, size: 0x8, addend: 0x0, symName: __ZNSt3__122__compressed_pair_elemINS_12basic_stringIcNS_11char_traitsIcEENS_9allocatorIcEEE5__repELi0ELb0EE5__getB7v160006Ev, symObjAddr: 0x1670, symBinAddr: 0x1000045C0, symSize: 0x10 }
  - { offsetInCU: 0xC5B5, offset: 0xC5B5, size: 0x8, addend: 0x0, symName: __ZNSt3__112basic_stringIcNS_11char_traitsIcEENS_9allocatorIcEEE10__align_itB7v160006ILm16EEEmm, symObjAddr: 0x1680, symBinAddr: 0x1000045D0, symSize: 0x20 }
  - { offsetInCU: 0xC5E3, offset: 0xC5E3, size: 0x8, addend: 0x0, symName: __ZNSt3__19allocatorIcE8allocateB7v160006Em, symObjAddr: 0x16A0, symBinAddr: 0x1000045F0, symSize: 0x80 }
  - { offsetInCU: 0xC620, offset: 0xC620, size: 0x8, addend: 0x0, symName: __ZNSt3__116allocator_traitsINS_9allocatorIcEEE8max_sizeB7v160006IS2_vEEmRKS2_, symObjAddr: 0x1720, symBinAddr: 0x100004670, symSize: 0x20 }
  - { offsetInCU: 0xC64E, offset: 0xC64E, size: 0x8, addend: 0x0, symName: __ZNKSt3__19allocatorIcE8max_sizeB7v160006Ev, symObjAddr: 0x17A0, symBinAddr: 0x1000046F0, symSize: 0x20 }
  - { offsetInCU: 0xC673, offset: 0xC673, size: 0x8, addend: 0x0, symName: __ZNSt3__117__compressed_pairINS_12basic_stringIcNS_11char_traitsIcEENS_9allocatorIcEEE5__repES5_E6secondB7v160006Ev, symObjAddr: 0x17E0, symBinAddr: 0x100004730, symSize: 0x20 }
  - { offsetInCU: 0xC698, offset: 0xC698, size: 0x8, addend: 0x0, symName: __ZNSt3__122__compressed_pair_elemINS_9allocatorIcEELi1ELb1EE5__getB7v160006Ev, symObjAddr: 0x1800, symBinAddr: 0x100004750, symSize: 0x10 }
  - { offsetInCU: 0xC6BD, offset: 0xC6BD, size: 0x8, addend: 0x0, symName: __ZN8EmployeeD2Ev, symObjAddr: 0x1810, symBinAddr: 0x100004760, symSize: 0x20 }
  - { offsetInCU: 0xC6E8, offset: 0xC6E8, size: 0x8, addend: 0x0, symName: __ZNSt3__114basic_ifstreamIcNS_11char_traitsIcEEED2Ev, symObjAddr: 0x1830, symBinAddr: 0x100004780, symSize: 0xA0 }
  - { offsetInCU: 0xC720, offset: 0xC720, size: 0x8, addend: 0x0, symName: __ZTv0_n24_NSt3__114basic_ifstreamIcNS_11char_traitsIcEEED1Ev, symObjAddr: 0x18D0, symBinAddr: 0x100004820, symSize: 0x20 }
  - { offsetInCU: 0xC736, offset: 0xC736, size: 0x8, addend: 0x0, symName: __ZNSt3__18ios_base4setfB7v160006Ejj, symObjAddr: 0x18F0, symBinAddr: 0x100004840, symSize: 0x50 }
  - { offsetInCU: 0xC789, offset: 0xC789, size: 0x8, addend: 0x0, symName: __ZNSt3__18ios_base6unsetfB7v160006Ej, symObjAddr: 0x1940, symBinAddr: 0x100004890, symSize: 0x20 }
  - { offsetInCU: 0xC7BF, offset: 0xC7BF, size: 0x8, addend: 0x0, symName: __ZNSt3__18__iom_t6C1B7v160006Ei, symObjAddr: 0x1960, symBinAddr: 0x1000048B0, symSize: 0x30 }
  - { offsetInCU: 0xC7F6, offset: 0xC7F6, size: 0x8, addend: 0x0, symName: __ZNSt3__18__iom_t6C2B7v160006Ei, symObjAddr: 0x1990, symBinAddr: 0x1000048E0, symSize: 0x20 }
  - { offsetInCU: 0xC82D, offset: 0xC82D, size: 0x8, addend: 0x0, symName: __ZNSt3__18__iom_t5C1B7v160006Ei, symObjAddr: 0x19B0, symBinAddr: 0x100004900, symSize: 0x30 }
  - { offsetInCU: 0xC864, offset: 0xC864, size: 0x8, addend: 0x0, symName: __ZNSt3__18__iom_t5C2B7v160006Ei, symObjAddr: 0x19E0, symBinAddr: 0x100004930, symSize: 0x20 }
  - { offsetInCU: 0xC89B, offset: 0xC89B, size: 0x8, addend: 0x0, symName: __ZNSt3__16vectorI8EmployeeNS_9allocatorIS1_EEEC2B7v160006Ev, symObjAddr: 0x1A00, symBinAddr: 0x100004950, symSize: 0x50 }
  - { offsetInCU: 0xC8C9, offset: 0xC8C9, size: 0x8, addend: 0x0, symName: __ZNSt3__117__compressed_pairIP8EmployeeNS_9allocatorIS1_EEEC1B7v160006IDnNS_18__default_init_tagEEEOT_OT0_, symObjAddr: 0x1A50, symBinAddr: 0x1000049A0, symSize: 0x30 }
  - { offsetInCU: 0xC920, offset: 0xC920, size: 0x8, addend: 0x0, symName: __ZNSt3__117__compressed_pairIP8EmployeeNS_9allocatorIS1_EEEC2B7v160006IDnNS_18__default_init_tagEEEOT_OT0_, symObjAddr: 0x1A90, symBinAddr: 0x1000049E0, symSize: 0x40 }
  - { offsetInCU: 0xC977, offset: 0xC977, size: 0x8, addend: 0x0, symName: __ZNSt3__122__compressed_pair_elemIP8EmployeeLi0ELb0EEC2B7v160006IDnvEEOT_, symObjAddr: 0x1AD0, symBinAddr: 0x100004A20, symSize: 0x20 }
  - { offsetInCU: 0xC9B8, offset: 0xC9B8, size: 0x8, addend: 0x0, symName: __ZNSt3__122__compressed_pair_elemINS_9allocatorI8EmployeeEELi1ELb1EEC2B7v160006ENS_18__default_init_tagE, symObjAddr: 0x1AF0, symBinAddr: 0x100004A40, symSize: 0x20 }
  - { offsetInCU: 0xC9EC, offset: 0xC9EC, size: 0x8, addend: 0x0, symName: __ZNSt3__19allocatorI8EmployeeEC2B7v160006Ev, symObjAddr: 0x1B10, symBinAddr: 0x100004A60, symSize: 0x20 }
  - { offsetInCU: 0xCA15, offset: 0xCA15, size: 0x8, addend: 0x0, symName: __ZNSt3__116__non_trivial_ifILb1ENS_9allocatorI8EmployeeEEEC2B7v160006Ev, symObjAddr: 0x1B30, symBinAddr: 0x100004A80, symSize: 0x10 }
  - { offsetInCU: 0xCA3E, offset: 0xCA3E, size: 0x8, addend: 0x0, symName: __ZNSt3__16vectorI8EmployeeNS_9allocatorIS1_EEED2B7v160006Ev, symObjAddr: 0x1B40, symBinAddr: 0x100004A90, symSize: 0x30 }
  - { offsetInCU: 0xCA67, offset: 0xCA67, size: 0x8, addend: 0x0, symName: __ZNSt3__16vectorI8EmployeeNS_9allocatorIS1_EEE16__destroy_vectorC1ERS4_, symObjAddr: 0x1B70, symBinAddr: 0x100004AC0, symSize: 0x30 }
  - { offsetInCU: 0xCA9F, offset: 0xCA9F, size: 0x8, addend: 0x0, symName: __ZNSt3__16vectorI8EmployeeNS_9allocatorIS1_EEE16__destroy_vectorclB7v160006Ev, symObjAddr: 0x1BA0, symBinAddr: 0x100004AF0, symSize: 0x90 }
  - { offsetInCU: 0xCAC4, offset: 0xCAC4, size: 0x8, addend: 0x0, symName: __ZNSt3__16vectorI8EmployeeNS_9allocatorIS1_EEE16__destroy_vectorC2ERS4_, symObjAddr: 0x1C30, symBinAddr: 0x100004B80, symSize: 0x20 }
  - { offsetInCU: 0xCAFC, offset: 0xCAFC, size: 0x8, addend: 0x0, symName: __ZNKSt3__16vectorI8EmployeeNS_9allocatorIS1_EEE17__annotate_deleteB7v160006Ev, symObjAddr: 0x1C50, symBinAddr: 0x100004BA0, symSize: 0xB0 }
  - { offsetInCU: 0xCB21, offset: 0xCB21, size: 0x8, addend: 0x0, symName: __ZNSt3__16vectorI8EmployeeNS_9allocatorIS1_EEE7__clearB7v160006Ev, symObjAddr: 0x1D10, symBinAddr: 0x100004C60, symSize: 0x20 }
  - { offsetInCU: 0xCB46, offset: 0xCB46, size: 0x8, addend: 0x0, symName: __ZNSt3__116allocator_traitsINS_9allocatorI8EmployeeEEE10deallocateB7v160006ERS3_PS2_m, symObjAddr: 0x1D30, symBinAddr: 0x100004C80, symSize: 0x30 }
  - { offsetInCU: 0xCB88, offset: 0xCB88, size: 0x8, addend: 0x0, symName: __ZNSt3__16vectorI8EmployeeNS_9allocatorIS1_EEE7__allocB7v160006Ev, symObjAddr: 0x1D60, symBinAddr: 0x100004CB0, symSize: 0x20 }
  - { offsetInCU: 0xCBAD, offset: 0xCBAD, size: 0x8, addend: 0x0, symName: __ZNKSt3__16vectorI8EmployeeNS_9allocatorIS1_EEE8capacityB7v160006Ev, symObjAddr: 0x1D80, symBinAddr: 0x100004CD0, symSize: 0x40 }
  - { offsetInCU: 0xCBD2, offset: 0xCBD2, size: 0x8, addend: 0x0, symName: __ZNKSt3__16vectorI8EmployeeNS_9allocatorIS1_EEE31__annotate_contiguous_containerB7v160006EPKvS6_S6_S6_, symObjAddr: 0x1DC0, symBinAddr: 0x100004D10, symSize: 0x20 }
  - { offsetInCU: 0xCC27, offset: 0xCC27, size: 0x8, addend: 0x0, symName: __ZNKSt3__16vectorI8EmployeeNS_9allocatorIS1_EEE4dataB7v160006Ev, symObjAddr: 0x1DE0, symBinAddr: 0x100004D30, symSize: 0x20 }
  - { offsetInCU: 0xCC4C, offset: 0xCC4C, size: 0x8, addend: 0x0, symName: __ZNSt3__16vectorI8EmployeeNS_9allocatorIS1_EEE22__base_destruct_at_endB7v160006EPS1_, symObjAddr: 0x1E10, symBinAddr: 0x100004D60, symSize: 0x90 }
  - { offsetInCU: 0xCC8F, offset: 0xCC8F, size: 0x8, addend: 0x0, symName: __ZNSt3__116allocator_traitsINS_9allocatorI8EmployeeEEE7destroyB7v160006IS2_vEEvRS3_PT_, symObjAddr: 0x1EA0, symBinAddr: 0x100004DF0, symSize: 0x30 }
  - { offsetInCU: 0xCCCC, offset: 0xCCCC, size: 0x8, addend: 0x0, symName: __ZNSt3__19allocatorI8EmployeeE7destroyB7v160006EPS1_, symObjAddr: 0x1ED0, symBinAddr: 0x100004E20, symSize: 0x20 }
  - { offsetInCU: 0xCCFF, offset: 0xCCFF, size: 0x8, addend: 0x0, symName: __ZNSt3__19allocatorI8EmployeeE10deallocateB7v160006EPS1_m, symObjAddr: 0x1EF0, symBinAddr: 0x100004E40, symSize: 0x80 }
  - { offsetInCU: 0xCD40, offset: 0xCD40, size: 0x8, addend: 0x0, symName: __ZNSt3__117__compressed_pairIP8EmployeeNS_9allocatorIS1_EEE6secondB7v160006Ev, symObjAddr: 0x1FE0, symBinAddr: 0x100004F30, symSize: 0x20 }
  - { offsetInCU: 0xCD65, offset: 0xCD65, size: 0x8, addend: 0x0, symName: __ZNSt3__122__compressed_pair_elemINS_9allocatorI8EmployeeEELi1ELb1EE5__getB7v160006Ev, symObjAddr: 0x2000, symBinAddr: 0x100004F50, symSize: 0x10 }
  - { offsetInCU: 0xCD8A, offset: 0xCD8A, size: 0x8, addend: 0x0, symName: __ZNKSt3__16vectorI8EmployeeNS_9allocatorIS1_EEE9__end_capB7v160006Ev, symObjAddr: 0x2010, symBinAddr: 0x100004F60, symSize: 0x20 }
  - { offsetInCU: 0xCDAF, offset: 0xCDAF, size: 0x8, addend: 0x0, symName: __ZNKSt3__117__compressed_pairIP8EmployeeNS_9allocatorIS1_EEE5firstB7v160006Ev, symObjAddr: 0x2030, symBinAddr: 0x100004F80, symSize: 0x20 }
  - { offsetInCU: 0xCDD4, offset: 0xCDD4, size: 0x8, addend: 0x0, symName: __ZNKSt3__122__compressed_pair_elemIP8EmployeeLi0ELb0EE5__getB7v160006Ev, symObjAddr: 0x2050, symBinAddr: 0x100004FA0, symSize: 0x10 }
  - { offsetInCU: 0xCDF9, offset: 0xCDF9, size: 0x8, addend: 0x0, symName: __ZNSt3__19basic_iosIcNS_11char_traitsIcEEEC2B7v160006Ev, symObjAddr: 0x2060, symBinAddr: 0x100004FB0, symSize: 0x40 }
  - { offsetInCU: 0xCE22, offset: 0xCE22, size: 0x8, addend: 0x0, symName: __ZNSt3__113basic_istreamIcNS_11char_traitsIcEEEC2B7v160006EPNS_15basic_streambufIcS2_EE, symObjAddr: 0x20A0, symBinAddr: 0x100004FF0, symSize: 0x50 }
  - { offsetInCU: 0xCE65, offset: 0xCE65, size: 0x8, addend: 0x0, symName: __ZNSt3__19basic_iosIcNS_11char_traitsIcEEE8setstateB7v160006Ej, symObjAddr: 0x20F0, symBinAddr: 0x100005040, symSize: 0x30 }
  - { offsetInCU: 0xCE99, offset: 0xCE99, size: 0x8, addend: 0x0, symName: __ZNSt3__18ios_baseC2B7v160006Ev, symObjAddr: 0x2120, symBinAddr: 0x100005070, symSize: 0x20 }
  - { offsetInCU: 0xCEC1, offset: 0xCEC1, size: 0x8, addend: 0x0, symName: __ZNSt3__19basic_iosIcNS_11char_traitsIcEEE4initB7v160006EPNS_15basic_streambufIcS2_EE, symObjAddr: 0x2140, symBinAddr: 0x100005090, symSize: 0x50 }
  - { offsetInCU: 0xCEF7, offset: 0xCEF7, size: 0x8, addend: 0x0, symName: __ZNSt3__111char_traitsIcE3eofEv, symObjAddr: 0x2190, symBinAddr: 0x1000050E0, symSize: 0x10 }
  - { offsetInCU: 0xCF0A, offset: 0xCF0A, size: 0x8, addend: 0x0, symName: __ZNSt3__18ios_base8setstateB7v160006Ej, symObjAddr: 0x21A0, symBinAddr: 0x1000050F0, symSize: 0x30 }
  - { offsetInCU: 0xCF40, offset: 0xCF40, size: 0x8, addend: 0x0, symName: __ZNKSt3__19basic_iosIcNS_11char_traitsIcEEE4failB7v160006Ev, symObjAddr: 0x21D0, symBinAddr: 0x100005120, symSize: 0x20 }
  - { offsetInCU: 0xCF64, offset: 0xCF64, size: 0x8, addend: 0x0, symName: __ZNKSt3__18ios_base4failB7v160006Ev, symObjAddr: 0x21F0, symBinAddr: 0x100005140, symSize: 0x20 }
  - { offsetInCU: 0xCF8B, offset: 0xCF8B, size: 0x8, addend: 0x0, symName: __ZNSt3__111char_traitsIcE6lengthEPKc, symObjAddr: 0x2400, symBinAddr: 0x100005350, symSize: 0x40 }
  - { offsetInCU: 0xCFCC, offset: 0xCFCC, size: 0x8, addend: 0x0, symName: __ZNKSt3__113basic_ostreamIcNS_11char_traitsIcEEE6sentrycvbB7v160006Ev, symObjAddr: 0x2440, symBinAddr: 0x100005390, symSize: 0x20 }
  - { offsetInCU: 0xCFF1, offset: 0xCFF1, size: 0x8, addend: 0x0, symName: __ZNSt3__119ostreambuf_iteratorIcNS_11char_traitsIcEEEC1B7v160006ERNS_13basic_ostreamIcS2_EE, symObjAddr: 0x2680, symBinAddr: 0x1000055D0, symSize: 0x30 }
  - { offsetInCU: 0xD027, offset: 0xD027, size: 0x8, addend: 0x0, symName: __ZNKSt3__18ios_base5flagsB7v160006Ev, symObjAddr: 0x26B0, symBinAddr: 0x100005600, symSize: 0x20 }
  - { offsetInCU: 0xD04D, offset: 0xD04D, size: 0x8, addend: 0x0, symName: __ZNKSt3__19basic_iosIcNS_11char_traitsIcEEE4fillB7v160006Ev, symObjAddr: 0x26D0, symBinAddr: 0x100005620, symSize: 0x70 }
  - { offsetInCU: 0xD074, offset: 0xD074, size: 0x8, addend: 0x0, symName: __ZNKSt3__119ostreambuf_iteratorIcNS_11char_traitsIcEEE6failedB7v160006Ev, symObjAddr: 0x2740, symBinAddr: 0x100005690, symSize: 0x20 }
  - { offsetInCU: 0xD098, offset: 0xD098, size: 0x8, addend: 0x0, symName: __ZNKSt3__18ios_base5widthB7v160006Ev, symObjAddr: 0x2760, symBinAddr: 0x1000056B0, symSize: 0x20 }
  - { offsetInCU: 0xD0BF, offset: 0xD0BF, size: 0x8, addend: 0x0, symName: __ZNSt3__115basic_streambufIcNS_11char_traitsIcEEE5sputnB7v160006EPKcl, symObjAddr: 0x2780, symBinAddr: 0x1000056D0, symSize: 0x30 }
  - { offsetInCU: 0xD100, offset: 0xD100, size: 0x8, addend: 0x0, symName: __ZNSt3__112basic_stringIcNS_11char_traitsIcEENS_9allocatorIcEEEC1B7v160006Emc, symObjAddr: 0x27B0, symBinAddr: 0x100005700, symSize: 0x30 }
  - { offsetInCU: 0xD147, offset: 0xD147, size: 0x8, addend: 0x0, symName: __ZNKSt3__112basic_stringIcNS_11char_traitsIcEENS_9allocatorIcEEE4dataB7v160006Ev, symObjAddr: 0x27E0, symBinAddr: 0x100005730, symSize: 0x30 }
  - { offsetInCU: 0xD16B, offset: 0xD16B, size: 0x8, addend: 0x0, symName: __ZNSt3__18ios_base5widthB7v160006El, symObjAddr: 0x2810, symBinAddr: 0x100005760, symSize: 0x30 }
  - { offsetInCU: 0xD1B0, offset: 0xD1B0, size: 0x8, addend: 0x0, symName: __ZNSt3__112basic_stringIcNS_11char_traitsIcEENS_9allocatorIcEEEC2B7v160006Emc, symObjAddr: 0x2840, symBinAddr: 0x100005790, symSize: 0x50 }
  - { offsetInCU: 0xD1F7, offset: 0xD1F7, size: 0x8, addend: 0x0, symName: __ZNKSt3__112basic_stringIcNS_11char_traitsIcEENS_9allocatorIcEEE13__get_pointerB7v160006Ev, symObjAddr: 0x28A0, symBinAddr: 0x1000057F0, symSize: 0x50 }
  - { offsetInCU: 0xD21C, offset: 0xD21C, size: 0x8, addend: 0x0, symName: __ZNKSt3__112basic_stringIcNS_11char_traitsIcEENS_9allocatorIcEEE9__is_longB7v160006Ev, symObjAddr: 0x28F0, symBinAddr: 0x100005840, symSize: 0x60 }
  - { offsetInCU: 0xD241, offset: 0xD241, size: 0x8, addend: 0x0, symName: __ZNKSt3__112basic_stringIcNS_11char_traitsIcEENS_9allocatorIcEEE18__get_long_pointerB7v160006Ev, symObjAddr: 0x2950, symBinAddr: 0x1000058A0, symSize: 0x20 }
  - { offsetInCU: 0xD266, offset: 0xD266, size: 0x8, addend: 0x0, symName: __ZNKSt3__112basic_stringIcNS_11char_traitsIcEENS_9allocatorIcEEE19__get_short_pointerB7v160006Ev, symObjAddr: 0x2970, symBinAddr: 0x1000058C0, symSize: 0x30 }
  - { offsetInCU: 0xD28B, offset: 0xD28B, size: 0x8, addend: 0x0, symName: __ZNKSt3__117__compressed_pairINS_12basic_stringIcNS_11char_traitsIcEENS_9allocatorIcEEE5__repES5_E5firstB7v160006Ev, symObjAddr: 0x29A0, symBinAddr: 0x1000058F0, symSize: 0x20 }
  - { offsetInCU: 0xD2B0, offset: 0xD2B0, size: 0x8, addend: 0x0, symName: __ZNKSt3__122__compressed_pair_elemINS_12basic_stringIcNS_11char_traitsIcEENS_9allocatorIcEEE5__repELi0ELb0EE5__getB7v160006Ev, symObjAddr: 0x29C0, symBinAddr: 0x100005910, symSize: 0x10 }
  - { offsetInCU: 0xD2D5, offset: 0xD2D5, size: 0x8, addend: 0x0, symName: __ZNSt3__114pointer_traitsIPKcE10pointer_toB7v160006ERS1_, symObjAddr: 0x29D0, symBinAddr: 0x100005920, symSize: 0x10 }
  - { offsetInCU: 0xD2F8, offset: 0xD2F8, size: 0x8, addend: 0x0, symName: __ZNSt3__119ostreambuf_iteratorIcNS_11char_traitsIcEEEC2B7v160006ERNS_13basic_ostreamIcS2_EE, symObjAddr: 0x29E0, symBinAddr: 0x100005930, symSize: 0x60 }
  - { offsetInCU: 0xD32E, offset: 0xD32E, size: 0x8, addend: 0x0, symName: __ZNKSt3__19basic_iosIcNS_11char_traitsIcEEE5rdbufB7v160006Ev, symObjAddr: 0x2A40, symBinAddr: 0x100005990, symSize: 0x20 }
  - { offsetInCU: 0xD355, offset: 0xD355, size: 0x8, addend: 0x0, symName: __ZNKSt3__18ios_base5rdbufB7v160006Ev, symObjAddr: 0x2A60, symBinAddr: 0x1000059B0, symSize: 0x20 }
  - { offsetInCU: 0xD37A, offset: 0xD37A, size: 0x8, addend: 0x0, symName: __ZNSt3__111char_traitsIcE11eq_int_typeEii, symObjAddr: 0x2A80, symBinAddr: 0x1000059D0, symSize: 0x20 }
  - { offsetInCU: 0xD3AA, offset: 0xD3AA, size: 0x8, addend: 0x0, symName: __ZNKSt3__19basic_iosIcNS_11char_traitsIcEEE5widenB7v160006Ec, symObjAddr: 0x2AA0, symBinAddr: 0x1000059F0, symSize: 0x90 }
  - { offsetInCU: 0xD40D, offset: 0xD40D, size: 0x8, addend: 0x0, symName: __ZNKSt3__15ctypeIcE5widenB7v160006Ec, symObjAddr: 0x2B60, symBinAddr: 0x100005AB0, symSize: 0x30 }
  - { offsetInCU: 0xD45F, offset: 0xD45F, size: 0x8, addend: 0x0, symName: __ZNKSt3__113basic_istreamIcNS_11char_traitsIcEEE6sentrycvbB7v160006Ev, symObjAddr: 0x2BB0, symBinAddr: 0x100005B00, symSize: 0x20 }
  - { offsetInCU: 0xD483, offset: 0xD483, size: 0x8, addend: 0x0, symName: __ZNSt3__112basic_stringIcNS_11char_traitsIcEENS_9allocatorIcEEE5clearB7v160006Ev, symObjAddr: 0x2BD0, symBinAddr: 0x100005B20, symSize: 0xA0 }
  - { offsetInCU: 0xD4AA, offset: 0xD4AA, size: 0x8, addend: 0x0, symName: __ZNKSt3__112basic_stringIcNS_11char_traitsIcEENS_9allocatorIcEEE8max_sizeB7v160006Ev, symObjAddr: 0x2C70, symBinAddr: 0x100005BC0, symSize: 0xA0 }
  - { offsetInCU: 0xD4FC, offset: 0xD4FC, size: 0x8, addend: 0x0, symName: __ZNSt3__114numeric_limitsIlE3maxB7v160006Ev, symObjAddr: 0x2D10, symBinAddr: 0x100005C60, symSize: 0x10 }
  - { offsetInCU: 0xD510, offset: 0xD510, size: 0x8, addend: 0x0, symName: __ZNSt3__115basic_streambufIcNS_11char_traitsIcEEE5sgetcB7v160006Ev, symObjAddr: 0x2D20, symBinAddr: 0x100005C70, symSize: 0x50 }
  - { offsetInCU: 0xD535, offset: 0xD535, size: 0x8, addend: 0x0, symName: __ZNSt3__111char_traitsIcE12to_char_typeEi, symObjAddr: 0x2D70, symBinAddr: 0x100005CC0, symSize: 0x10 }
  - { offsetInCU: 0xD558, offset: 0xD558, size: 0x8, addend: 0x0, symName: __ZNKSt3__15ctypeIcE2isB7v160006Ejc, symObjAddr: 0x2D80, symBinAddr: 0x100005CD0, symSize: 0x70 }
  - { offsetInCU: 0xD59B, offset: 0xD59B, size: 0x8, addend: 0x0, symName: __ZNSt3__115basic_streambufIcNS_11char_traitsIcEEE6sbumpcB7v160006Ev, symObjAddr: 0x2DF0, symBinAddr: 0x100005D40, symSize: 0x60 }
  - { offsetInCU: 0xD5C0, offset: 0xD5C0, size: 0x8, addend: 0x0, symName: __ZNSt3__18ios_base18__setstate_nothrowB7v160006Ej, symObjAddr: 0x2E50, symBinAddr: 0x100005DA0, symSize: 0x50 }
  - { offsetInCU: 0xD5F4, offset: 0xD5F4, size: 0x8, addend: 0x0, symName: __ZNKSt3__19basic_iosIcNS_11char_traitsIcEEE10exceptionsB7v160006Ev, symObjAddr: 0x2EA0, symBinAddr: 0x100005DF0, symSize: 0x20 }
  - { offsetInCU: 0xD619, offset: 0xD619, size: 0x8, addend: 0x0, symName: __ZNSt3__111char_traitsIcE6assignERcRKc, symObjAddr: 0x2ED0, symBinAddr: 0x100005E20, symSize: 0x20 }
  - { offsetInCU: 0xD64A, offset: 0xD64A, size: 0x8, addend: 0x0, symName: __ZNSt3__112basic_stringIcNS_11char_traitsIcEENS_9allocatorIcEEE18__get_long_pointerB7v160006Ev, symObjAddr: 0x2EF0, symBinAddr: 0x100005E40, symSize: 0x20 }
  - { offsetInCU: 0xD66F, offset: 0xD66F, size: 0x8, addend: 0x0, symName: __ZNSt3__112basic_stringIcNS_11char_traitsIcEENS_9allocatorIcEEE19__get_short_pointerB7v160006Ev, symObjAddr: 0x2F10, symBinAddr: 0x100005E60, symSize: 0x30 }
  - { offsetInCU: 0xD694, offset: 0xD694, size: 0x8, addend: 0x0, symName: __ZNSt3__112basic_stringIcNS_11char_traitsIcEENS_9allocatorIcEEE16__set_short_sizeB7v160006Em, symObjAddr: 0x2F40, symBinAddr: 0x100005E90, symSize: 0x50 }
  - { offsetInCU: 0xD6C8, offset: 0xD6C8, size: 0x8, addend: 0x0, symName: __ZNSt3__114pointer_traitsIPcE10pointer_toB7v160006ERc, symObjAddr: 0x2F90, symBinAddr: 0x100005EE0, symSize: 0x10 }
  - { offsetInCU: 0xD6EB, offset: 0xD6EB, size: 0x8, addend: 0x0, symName: __ZNKSt3__112basic_stringIcNS_11char_traitsIcEENS_9allocatorIcEEE7__allocB7v160006Ev, symObjAddr: 0x2FA0, symBinAddr: 0x100005EF0, symSize: 0x20 }
  - { offsetInCU: 0xD710, offset: 0xD710, size: 0x8, addend: 0x0, symName: __ZNSt3__114numeric_limitsImE3maxB7v160006Ev, symObjAddr: 0x2FC0, symBinAddr: 0x100005F10, symSize: 0x10 }
  - { offsetInCU: 0xD724, offset: 0xD724, size: 0x8, addend: 0x0, symName: __ZNKSt3__117__compressed_pairINS_12basic_stringIcNS_11char_traitsIcEENS_9allocatorIcEEE5__repES5_E6secondB7v160006Ev, symObjAddr: 0x2FD0, symBinAddr: 0x100005F20, symSize: 0x20 }
  - { offsetInCU: 0xD749, offset: 0xD749, size: 0x8, addend: 0x0, symName: __ZNKSt3__122__compressed_pair_elemINS_9allocatorIcEELi1ELb1EE5__getB7v160006Ev, symObjAddr: 0x2FF0, symBinAddr: 0x100005F40, symSize: 0x10 }
  - { offsetInCU: 0xD76E, offset: 0xD76E, size: 0x8, addend: 0x0, symName: __ZNSt3__123__libcpp_numeric_limitsImLb1EE3maxB7v160006Ev, symObjAddr: 0x3000, symBinAddr: 0x100005F50, symSize: 0x10 }
  - { offsetInCU: 0xD782, offset: 0xD782, size: 0x8, addend: 0x0, symName: __ZNSt3__123__libcpp_numeric_limitsIlLb1EE3maxB7v160006Ev, symObjAddr: 0x3010, symBinAddr: 0x100005F60, symSize: 0x10 }
  - { offsetInCU: 0xD796, offset: 0xD796, size: 0x8, addend: 0x0, symName: __ZNSt3__111char_traitsIcE11to_int_typeEc, symObjAddr: 0x3020, symBinAddr: 0x100005F70, symSize: 0x10 }
  - { offsetInCU: 0xD7B8, offset: 0xD7B8, size: 0x8, addend: 0x0, symName: __Z7isasciii, symObjAddr: 0x3030, symBinAddr: 0x100005F80, symSize: 0x20 }
  - { offsetInCU: 0xD7E4, offset: 0xD7E4, size: 0x8, addend: 0x0, symName: __ZNKSt3__18ios_base10exceptionsB7v160006Ev, symObjAddr: 0x3050, symBinAddr: 0x100005FA0, symSize: 0x20 }
  - { offsetInCU: 0xD80B, offset: 0xD80B, size: 0x8, addend: 0x0, symName: __ZNSt3__16vectorI8EmployeeNS_9allocatorIS1_EEE9__end_capB7v160006Ev, symObjAddr: 0x3070, symBinAddr: 0x100005FC0, symSize: 0x20 }
  - { offsetInCU: 0xD830, offset: 0xD830, size: 0x8, addend: 0x0, symName: __ZNSt3__16vectorI8EmployeeNS_9allocatorIS1_EEE22__construct_one_at_endB7v160006IJRKS1_EEEvDpOT_, symObjAddr: 0x3090, symBinAddr: 0x100005FE0, symSize: 0xA0 }
  - { offsetInCU: 0xD87D, offset: 0xD87D, size: 0x8, addend: 0x0, symName: __ZNSt3__16vectorI8EmployeeNS_9allocatorIS1_EEE21__push_back_slow_pathIRKS1_EEvOT_, symObjAddr: 0x3130, symBinAddr: 0x100006080, symSize: 0xE0 }
  - { offsetInCU: 0xD8DA, offset: 0xD8DA, size: 0x8, addend: 0x0, symName: __ZNSt3__117__compressed_pairIP8EmployeeNS_9allocatorIS1_EEE5firstB7v160006Ev, symObjAddr: 0x3210, symBinAddr: 0x100006160, symSize: 0x20 }
  - { offsetInCU: 0xD8FF, offset: 0xD8FF, size: 0x8, addend: 0x0, symName: __ZNSt3__122__compressed_pair_elemIP8EmployeeLi0ELb0EE5__getB7v160006Ev, symObjAddr: 0x3230, symBinAddr: 0x100006180, symSize: 0x10 }
  - { offsetInCU: 0xD93D, offset: 0xD93D, size: 0x8, addend: 0x0, symName: __ZNSt3__16vectorI8EmployeeNS_9allocatorIS1_EEE21_ConstructTransactionC1B7v160006ERS4_m, symObjAddr: 0x3240, symBinAddr: 0x100006190, symSize: 0x30 }
  - { offsetInCU: 0xD984, offset: 0xD984, size: 0x8, addend: 0x0, symName: __ZNSt3__116allocator_traitsINS_9allocatorI8EmployeeEEE9constructB7v160006IS2_JRKS2_EvEEvRS3_PT_DpOT0_, symObjAddr: 0x3270, symBinAddr: 0x1000061C0, symSize: 0x30 }
  - { offsetInCU: 0xD9DB, offset: 0xD9DB, size: 0x8, addend: 0x0, symName: __ZNSt3__16vectorI8EmployeeNS_9allocatorIS1_EEE21_ConstructTransactionD1B7v160006Ev, symObjAddr: 0x32A0, symBinAddr: 0x1000061F0, symSize: 0x20 }
  - { offsetInCU: 0xDA04, offset: 0xDA04, size: 0x8, addend: 0x0, symName: __ZNSt3__16vectorI8EmployeeNS_9allocatorIS1_EEE21_ConstructTransactionC2B7v160006ERS4_m, symObjAddr: 0x32C0, symBinAddr: 0x100006210, symSize: 0x40 }
  - { offsetInCU: 0xDA4B, offset: 0xDA4B, size: 0x8, addend: 0x0, symName: __ZNSt3__19allocatorI8EmployeeE9constructB7v160006IS1_JRKS1_EEEvPT_DpOT0_, symObjAddr: 0x3300, symBinAddr: 0x100006250, symSize: 0x30 }
  - { offsetInCU: 0xDAA0, offset: 0xDAA0, size: 0x8, addend: 0x0, symName: __ZN8EmployeeC1ERKS_, symObjAddr: 0x3330, symBinAddr: 0x100006280, symSize: 0x30 }
  - { offsetInCU: 0xDAD4, offset: 0xDAD4, size: 0x8, addend: 0x0, symName: __ZN8EmployeeC2ERKS_, symObjAddr: 0x3360, symBinAddr: 0x1000062B0, symSize: 0x50 }
  - { offsetInCU: 0xDB08, offset: 0xDB08, size: 0x8, addend: 0x0, symName: __ZNSt3__16vectorI8EmployeeNS_9allocatorIS1_EEE21_ConstructTransactionD2B7v160006Ev, symObjAddr: 0x33B0, symBinAddr: 0x100006300, symSize: 0x20 }
  - { offsetInCU: 0xDB30, offset: 0xDB30, size: 0x8, addend: 0x0, symName: __ZNKSt3__16vectorI8EmployeeNS_9allocatorIS1_EEE11__recommendB7v160006Em, symObjAddr: 0x33D0, symBinAddr: 0x100006320, symSize: 0xA0 }
  - { offsetInCU: 0xDB84, offset: 0xDB84, size: 0x8, addend: 0x0, symName: __ZNSt3__114__split_bufferI8EmployeeRNS_9allocatorIS1_EEEC1EmmS4_, symObjAddr: 0x3470, symBinAddr: 0x1000063C0, symSize: 0x40 }
  - { offsetInCU: 0xDBD9, offset: 0xDBD9, size: 0x8, addend: 0x0, symName: __ZNSt3__114__split_bufferI8EmployeeRNS_9allocatorIS1_EEED1Ev, symObjAddr: 0x35E0, symBinAddr: 0x100006530, symSize: 0x20 }
  - { offsetInCU: 0xDC03, offset: 0xDC03, size: 0x8, addend: 0x0, symName: __ZNKSt3__16vectorI8EmployeeNS_9allocatorIS1_EEE8max_sizeEv, symObjAddr: 0x3600, symBinAddr: 0x100006550, symSize: 0x70 }
  - { offsetInCU: 0xDC2A, offset: 0xDC2A, size: 0x8, addend: 0x0, symName: __ZNKSt3__16vectorI8EmployeeNS_9allocatorIS1_EEE20__throw_length_errorB7v160006Ev, symObjAddr: 0x3670, symBinAddr: 0x1000065C0, symSize: 0x20 }
  - { offsetInCU: 0xDC59, offset: 0xDC59, size: 0x8, addend: 0x0, symName: __ZNSt3__116allocator_traitsINS_9allocatorI8EmployeeEEE8max_sizeB7v160006IS3_vEEmRKS3_, symObjAddr: 0x36F0, symBinAddr: 0x100006640, symSize: 0x20 }
  - { offsetInCU: 0xDC87, offset: 0xDC87, size: 0x8, addend: 0x0, symName: __ZNKSt3__16vectorI8EmployeeNS_9allocatorIS1_EEE7__allocB7v160006Ev, symObjAddr: 0x3710, symBinAddr: 0x100006660, symSize: 0x20 }
  - { offsetInCU: 0xDCC0, offset: 0xDCC0, size: 0x8, addend: 0x0, symName: __ZNKSt3__16__lessImmEclB7v160006ERKmS3_, symObjAddr: 0x3780, symBinAddr: 0x1000066D0, symSize: 0x30 }
  - { offsetInCU: 0xDD01, offset: 0xDD01, size: 0x8, addend: 0x0, symName: __ZNKSt3__19allocatorI8EmployeeE8max_sizeB7v160006Ev, symObjAddr: 0x37B0, symBinAddr: 0x100006700, symSize: 0x20 }
  - { offsetInCU: 0xDD26, offset: 0xDD26, size: 0x8, addend: 0x0, symName: __ZNKSt3__117__compressed_pairIP8EmployeeNS_9allocatorIS1_EEE6secondB7v160006Ev, symObjAddr: 0x37D0, symBinAddr: 0x100006720, symSize: 0x20 }
  - { offsetInCU: 0xDD4B, offset: 0xDD4B, size: 0x8, addend: 0x0, symName: __ZNKSt3__122__compressed_pair_elemINS_9allocatorI8EmployeeEELi1ELb1EE5__getB7v160006Ev, symObjAddr: 0x37F0, symBinAddr: 0x100006740, symSize: 0x10 }
  - { offsetInCU: 0xDD70, offset: 0xDD70, size: 0x8, addend: 0x0, symName: __ZNSt12length_errorC1B7v160006EPKc, symObjAddr: 0x3870, symBinAddr: 0x1000067C0, symSize: 0x30 }
  - { offsetInCU: 0xDDA7, offset: 0xDDA7, size: 0x8, addend: 0x0, symName: __ZNSt12length_errorC2B7v160006EPKc, symObjAddr: 0x38A0, symBinAddr: 0x1000067F0, symSize: 0x40 }
  - { offsetInCU: 0xDDDE, offset: 0xDDDE, size: 0x8, addend: 0x0, symName: __ZNSt3__114__split_bufferI8EmployeeRNS_9allocatorIS1_EEEC2EmmS4_, symObjAddr: 0x3930, symBinAddr: 0x100006880, symSize: 0xC0 }
  - { offsetInCU: 0xDE51, offset: 0xDE51, size: 0x8, addend: 0x0, symName: __ZNSt3__117__compressed_pairIP8EmployeeRNS_9allocatorIS1_EEEC1B7v160006IDnS5_EEOT_OT0_, symObjAddr: 0x39F0, symBinAddr: 0x100006940, symSize: 0x30 }
  - { offsetInCU: 0xDEA8, offset: 0xDEA8, size: 0x8, addend: 0x0, symName: __ZNSt3__114__split_bufferI8EmployeeRNS_9allocatorIS1_EEE7__allocB7v160006Ev, symObjAddr: 0x3A60, symBinAddr: 0x1000069B0, symSize: 0x20 }
  - { offsetInCU: 0xDECD, offset: 0xDECD, size: 0x8, addend: 0x0, symName: __ZNSt3__114__split_bufferI8EmployeeRNS_9allocatorIS1_EEE9__end_capB7v160006Ev, symObjAddr: 0x3A80, symBinAddr: 0x1000069D0, symSize: 0x20 }
  - { offsetInCU: 0xDEF2, offset: 0xDEF2, size: 0x8, addend: 0x0, symName: __ZNSt3__117__compressed_pairIP8EmployeeRNS_9allocatorIS1_EEEC2B7v160006IDnS5_EEOT_OT0_, symObjAddr: 0x3AA0, symBinAddr: 0x1000069F0, symSize: 0x40 }
  - { offsetInCU: 0xDF49, offset: 0xDF49, size: 0x8, addend: 0x0, symName: __ZNSt3__122__compressed_pair_elemIRNS_9allocatorI8EmployeeEELi1ELb0EEC2B7v160006IS4_vEEOT_, symObjAddr: 0x3AE0, symBinAddr: 0x100006A30, symSize: 0x20 }
  - { offsetInCU: 0xDF8A, offset: 0xDF8A, size: 0x8, addend: 0x0, symName: __ZNSt3__19allocatorI8EmployeeE8allocateB7v160006Em, symObjAddr: 0x3B00, symBinAddr: 0x100006A50, symSize: 0x80 }
  - { offsetInCU: 0xDFBD, offset: 0xDFBD, size: 0x8, addend: 0x0, symName: __ZNSt3__117__compressed_pairIP8EmployeeRNS_9allocatorIS1_EEE6secondB7v160006Ev, symObjAddr: 0x3B80, symBinAddr: 0x100006AD0, symSize: 0x20 }
  - { offsetInCU: 0xDFE2, offset: 0xDFE2, size: 0x8, addend: 0x0, symName: __ZNSt3__122__compressed_pair_elemIRNS_9allocatorI8EmployeeEELi1ELb0EE5__getB7v160006Ev, symObjAddr: 0x3BA0, symBinAddr: 0x100006AF0, symSize: 0x20 }
  - { offsetInCU: 0xE007, offset: 0xE007, size: 0x8, addend: 0x0, symName: __ZNSt3__117__compressed_pairIP8EmployeeRNS_9allocatorIS1_EEE5firstB7v160006Ev, symObjAddr: 0x3BC0, symBinAddr: 0x100006B10, symSize: 0x20 }
  - { offsetInCU: 0xE02C, offset: 0xE02C, size: 0x8, addend: 0x0, symName: __ZNSt3__116reverse_iteratorIP8EmployeeEC1B7v160006ES2_, symObjAddr: 0x3D70, symBinAddr: 0x100006CC0, symSize: 0x30 }
  - { offsetInCU: 0xE063, offset: 0xE063, size: 0x8, addend: 0x0, symName: __ZNKSt3__116reverse_iteratorIP8EmployeeE4baseB7v160006Ev, symObjAddr: 0x3DA0, symBinAddr: 0x100006CF0, symSize: 0x20 }
  - { offsetInCU: 0xE088, offset: 0xE088, size: 0x8, addend: 0x0, symName: __ZNKSt3__16vectorI8EmployeeNS_9allocatorIS1_EEE14__annotate_newB7v160006Em, symObjAddr: 0x3E00, symBinAddr: 0x100006D50, symSize: 0xA0 }
  - { offsetInCU: 0xE0BC, offset: 0xE0BC, size: 0x8, addend: 0x0, symName: __ZNSt3__129_AllocatorDestroyRangeReverseINS_9allocatorI8EmployeeEENS_16reverse_iteratorIPS2_EEEC1B7v160006ERS3_RS6_S9_, symObjAddr: 0x3F10, symBinAddr: 0x100006E60, symSize: 0x40 }
  - { offsetInCU: 0xE112, offset: 0xE112, size: 0x8, addend: 0x0, symName: __ZNKSt3__116reverse_iteratorIP8EmployeeEdeB7v160006Ev, symObjAddr: 0x3FB0, symBinAddr: 0x100006F00, symSize: 0x30 }
  - { offsetInCU: 0xE145, offset: 0xE145, size: 0x8, addend: 0x0, symName: __ZNSt3__116reverse_iteratorIP8EmployeeEppB7v160006Ev, symObjAddr: 0x3FE0, symBinAddr: 0x100006F30, symSize: 0x20 }
  - { offsetInCU: 0xE16A, offset: 0xE16A, size: 0x8, addend: 0x0, symName: __ZNSt3__128__exception_guard_exceptionsINS_29_AllocatorDestroyRangeReverseINS_9allocatorI8EmployeeEENS_16reverse_iteratorIPS3_EEEEE10__completeB7v160006Ev, symObjAddr: 0x4000, symBinAddr: 0x100006F50, symSize: 0x20 }
  - { offsetInCU: 0xE18F, offset: 0xE18F, size: 0x8, addend: 0x0, symName: __ZNSt3__128__exception_guard_exceptionsINS_29_AllocatorDestroyRangeReverseINS_9allocatorI8EmployeeEENS_16reverse_iteratorIPS3_EEEEED1B7v160006Ev, symObjAddr: 0x4020, symBinAddr: 0x100006F70, symSize: 0x20 }
  - { offsetInCU: 0xE1B8, offset: 0xE1B8, size: 0x8, addend: 0x0, symName: __ZNSt3__128__exception_guard_exceptionsINS_29_AllocatorDestroyRangeReverseINS_9allocatorI8EmployeeEENS_16reverse_iteratorIPS3_EEEEEC1B7v160006ES8_, symObjAddr: 0x4040, symBinAddr: 0x100006F90, symSize: 0x40 }
  - { offsetInCU: 0xE1EF, offset: 0xE1EF, size: 0x8, addend: 0x0, symName: __ZNSt3__128__exception_guard_exceptionsINS_29_AllocatorDestroyRangeReverseINS_9allocatorI8EmployeeEENS_16reverse_iteratorIPS3_EEEEEC2B7v160006ES8_, symObjAddr: 0x4080, symBinAddr: 0x100006FD0, symSize: 0x30 }
  - { offsetInCU: 0xE226, offset: 0xE226, size: 0x8, addend: 0x0, symName: __ZNSt3__129_AllocatorDestroyRangeReverseINS_9allocatorI8EmployeeEENS_16reverse_iteratorIPS2_EEEC2B7v160006ERS3_RS6_S9_, symObjAddr: 0x40B0, symBinAddr: 0x100007000, symSize: 0x40 }
  - { offsetInCU: 0xE281, offset: 0xE281, size: 0x8, addend: 0x0, symName: __ZNSt3__119__to_address_helperINS_16reverse_iteratorIP8EmployeeEEvE6__callB7v160006ERKS4_, symObjAddr: 0x40F0, symBinAddr: 0x100007040, symSize: 0x50 }
  - { offsetInCU: 0xE2A4, offset: 0xE2A4, size: 0x8, addend: 0x0, symName: __ZNKSt3__116reverse_iteratorIP8EmployeeEptB7v160006Ev, symObjAddr: 0x4140, symBinAddr: 0x100007090, symSize: 0x20 }
  - { offsetInCU: 0xE2C9, offset: 0xE2C9, size: 0x8, addend: 0x0, symName: __ZNSt3__128__exception_guard_exceptionsINS_29_AllocatorDestroyRangeReverseINS_9allocatorI8EmployeeEENS_16reverse_iteratorIPS3_EEEEED2B7v160006Ev, symObjAddr: 0x4160, symBinAddr: 0x1000070B0, symSize: 0x30 }
  - { offsetInCU: 0xE2F2, offset: 0xE2F2, size: 0x8, addend: 0x0, symName: __ZNKSt3__129_AllocatorDestroyRangeReverseINS_9allocatorI8EmployeeEENS_16reverse_iteratorIPS2_EEEclB7v160006Ev, symObjAddr: 0x4190, symBinAddr: 0x1000070E0, symSize: 0xF0 }
  - { offsetInCU: 0xE318, offset: 0xE318, size: 0x8, addend: 0x0, symName: __ZNSt3__116reverse_iteratorINS0_IP8EmployeeEEEC1B7v160006ES3_, symObjAddr: 0x42F0, symBinAddr: 0x100007240, symSize: 0x30 }
  - { offsetInCU: 0xE34F, offset: 0xE34F, size: 0x8, addend: 0x0, symName: __ZNSt3__116reverse_iteratorINS0_IP8EmployeeEEEppB7v160006Ev, symObjAddr: 0x4390, symBinAddr: 0x1000072E0, symSize: 0x30 }
  - { offsetInCU: 0xE374, offset: 0xE374, size: 0x8, addend: 0x0, symName: __ZNKSt3__116reverse_iteratorINS0_IP8EmployeeEEE4baseB7v160006Ev, symObjAddr: 0x43C0, symBinAddr: 0x100007310, symSize: 0x20 }
  - { offsetInCU: 0xE39E, offset: 0xE39E, size: 0x8, addend: 0x0, symName: __ZNSt3__119__to_address_helperINS_16reverse_iteratorINS1_IP8EmployeeEEEEvE6__callB7v160006ERKS5_, symObjAddr: 0x43E0, symBinAddr: 0x100007330, symSize: 0x50 }
  - { offsetInCU: 0xE3C1, offset: 0xE3C1, size: 0x8, addend: 0x0, symName: __ZNKSt3__116reverse_iteratorINS0_IP8EmployeeEEEptB7v160006Ev, symObjAddr: 0x4430, symBinAddr: 0x100007380, symSize: 0x20 }
  - { offsetInCU: 0xE3E6, offset: 0xE3E6, size: 0x8, addend: 0x0, symName: __ZNKSt3__116reverse_iteratorINS0_IP8EmployeeEEEdeB7v160006Ev, symObjAddr: 0x4450, symBinAddr: 0x1000073A0, symSize: 0x40 }
  - { offsetInCU: 0xE419, offset: 0xE419, size: 0x8, addend: 0x0, symName: __ZNSt3__116reverse_iteratorIP8EmployeeEmmB7v160006Ev, symObjAddr: 0x4490, symBinAddr: 0x1000073E0, symSize: 0x20 }
  - { offsetInCU: 0xE43E, offset: 0xE43E, size: 0x8, addend: 0x0, symName: __ZNSt3__116reverse_iteratorINS0_IP8EmployeeEEEC2B7v160006ES3_, symObjAddr: 0x44B0, symBinAddr: 0x100007400, symSize: 0x40 }
  - { offsetInCU: 0xE475, offset: 0xE475, size: 0x8, addend: 0x0, symName: __ZNSt3__116reverse_iteratorIP8EmployeeEC2B7v160006ES2_, symObjAddr: 0x44F0, symBinAddr: 0x100007440, symSize: 0x30 }
  - { offsetInCU: 0xE4AC, offset: 0xE4AC, size: 0x8, addend: 0x0, symName: __ZNSt3__114__split_bufferI8EmployeeRNS_9allocatorIS1_EEED2Ev, symObjAddr: 0x4520, symBinAddr: 0x100007470, symSize: 0x60 }
  - { offsetInCU: 0xE4D7, offset: 0xE4D7, size: 0x8, addend: 0x0, symName: __ZNSt3__114__split_bufferI8EmployeeRNS_9allocatorIS1_EEE5clearB7v160006Ev, symObjAddr: 0x4580, symBinAddr: 0x1000074D0, symSize: 0x20 }
  - { offsetInCU: 0xE4FC, offset: 0xE4FC, size: 0x8, addend: 0x0, symName: __ZNKSt3__114__split_bufferI8EmployeeRNS_9allocatorIS1_EEE8capacityB7v160006Ev, symObjAddr: 0x45A0, symBinAddr: 0x1000074F0, symSize: 0x40 }
  - { offsetInCU: 0xE521, offset: 0xE521, size: 0x8, addend: 0x0, symName: __ZNSt3__114__split_bufferI8EmployeeRNS_9allocatorIS1_EEE17__destruct_at_endB7v160006EPS1_, symObjAddr: 0x45E0, symBinAddr: 0x100007530, symSize: 0x30 }
  - { offsetInCU: 0xE553, offset: 0xE553, size: 0x8, addend: 0x0, symName: __ZNSt3__114__split_bufferI8EmployeeRNS_9allocatorIS1_EEE17__destruct_at_endB7v160006EPS1_NS_17integral_constantIbLb0EEE, symObjAddr: 0x4610, symBinAddr: 0x100007560, symSize: 0x80 }
  - { offsetInCU: 0xE593, offset: 0xE593, size: 0x8, addend: 0x0, symName: __ZNKSt3__114__split_bufferI8EmployeeRNS_9allocatorIS1_EEE9__end_capB7v160006Ev, symObjAddr: 0x4690, symBinAddr: 0x1000075E0, symSize: 0x20 }
  - { offsetInCU: 0xE5B8, offset: 0xE5B8, size: 0x8, addend: 0x0, symName: __ZNKSt3__117__compressed_pairIP8EmployeeRNS_9allocatorIS1_EEE5firstB7v160006Ev, symObjAddr: 0x46B0, symBinAddr: 0x100007600, symSize: 0x20 }
  - { offsetInCU: 0xE5DD, offset: 0xE5DD, size: 0x8, addend: 0x0, symName: __ZNSt3__16vectorI8EmployeeNS_9allocatorIS1_EEE11__make_iterB7v160006EPS1_, symObjAddr: 0x46D0, symBinAddr: 0x100007620, symSize: 0x30 }
  - { offsetInCU: 0xE611, offset: 0xE611, size: 0x8, addend: 0x0, symName: __ZNSt3__111__wrap_iterIP8EmployeeEC1B7v160006EPKvS2_, symObjAddr: 0x4700, symBinAddr: 0x100007650, symSize: 0x30 }
  - { offsetInCU: 0xE656, offset: 0xE656, size: 0x8, addend: 0x0, symName: __ZNSt3__111__wrap_iterIP8EmployeeEC2B7v160006EPKvS2_, symObjAddr: 0x4730, symBinAddr: 0x100007680, symSize: 0x20 }
  - { offsetInCU: 0xE69B, offset: 0xE69B, size: 0x8, addend: 0x0, symName: __ZNKSt3__111__wrap_iterIP8EmployeeE4baseB7v160006Ev, symObjAddr: 0x4790, symBinAddr: 0x1000076E0, symSize: 0x20 }
  - { offsetInCU: 0xE6D4, offset: 0xE6D4, size: 0x8, addend: 0x0, symName: __ZNKSt3__16__lessIddEclB7v160006ERKdS3_, symObjAddr: 0x4800, symBinAddr: 0x100007750, symSize: 0x30 }
  - { offsetInCU: 0xE715, offset: 0xE715, size: 0x8, addend: 0x0, symName: __ZNKSt3__16vectorI8EmployeeNS_9allocatorIS1_EEE11__make_iterB7v160006EPKS1_, symObjAddr: 0x4880, symBinAddr: 0x1000077D0, symSize: 0x30 }
  - { offsetInCU: 0xE749, offset: 0xE749, size: 0x8, addend: 0x0, symName: __ZNSt3__111__wrap_iterIPK8EmployeeEC1B7v160006EPKvS3_, symObjAddr: 0x48B0, symBinAddr: 0x100007800, symSize: 0x30 }
  - { offsetInCU: 0xE78E, offset: 0xE78E, size: 0x8, addend: 0x0, symName: __ZNSt3__111__wrap_iterIPK8EmployeeEC2B7v160006EPKvS3_, symObjAddr: 0x48E0, symBinAddr: 0x100007830, symSize: 0x20 }
  - { offsetInCU: 0xE7D3, offset: 0xE7D3, size: 0x8, addend: 0x0, symName: __ZNKSt3__111__wrap_iterIPK8EmployeeE4baseB7v160006Ev, symObjAddr: 0x4940, symBinAddr: 0x100007890, symSize: 0x20 }
  - { offsetInCU: 0xE7F8, offset: 0xE7F8, size: 0x8, addend: 0x0, symName: __ZNKSt3__112basic_stringIcNS_11char_traitsIcEENS_9allocatorIcEEE4sizeB7v160006Ev, symObjAddr: 0x4960, symBinAddr: 0x1000078B0, symSize: 0x50 }
  - { offsetInCU: 0xE81D, offset: 0xE81D, size: 0x8, addend: 0x0, symName: __ZNKSt3__112basic_stringIcNS_11char_traitsIcEENS_9allocatorIcEEE15__get_long_sizeB7v160006Ev, symObjAddr: 0x49B0, symBinAddr: 0x100007900, symSize: 0x20 }
  - { offsetInCU: 0xE842, offset: 0xE842, size: 0x8, addend: 0x0, symName: __ZNKSt3__112basic_stringIcNS_11char_traitsIcEENS_9allocatorIcEEE16__get_short_sizeB7v160006Ev, symObjAddr: 0x49D0, symBinAddr: 0x100007920, symSize: 0x30 }
  - { offsetInCU: 0xE866, offset: 0xE866, size: 0x8, addend: 0x0, symName: __ZNSt3__18ios_base9precisionB7v160006El, symObjAddr: 0x4A00, symBinAddr: 0x100007950, symSize: 0x26 }
...
