---
triple:          'x86_64-apple-darwin'
binary-path:     '/Users/mityakim/Desktop/Learn_C/9-2/output/main'
relocations:
  - { offsetInCU: 0x4827, offset: 0x4827, size: 0x8, addend: 0x0, symName: __ZNSt3__124__put_character_sequenceB7v160006IcNS_11char_traitsIcEEEERNS_13basic_ostreamIT_T0_EES7_PKS4_m, symObjAddr: 0x27B0, symBinAddr: 0x100004FC0, symSize: 0x1F0 }
  - { offsetInCU: 0x79C0, offset: 0x79C0, size: 0x8, addend: 0x0, symName: __ZNSt3__1lsB7v160006INS_11char_traitsIcEEEERNS_13basic_ostreamIcT_EES6_PKc, symObjAddr: 0xBE0, symBinAddr: 0x1000033F0, symSize: 0x40 }
  - { offsetInCU: 0x7A06, offset: 0x7A06, size: 0x8, addend: 0x0, symName: __ZNSt3__1rsB7v160006IcNS_11char_traitsIcEENS_9allocatorIcEEEERNS_13basic_istreamIT_T0_EES9_RNS_12basic_stringIS6_S7_T1_EE, symObjAddr: 0xC40, symBinAddr: 0x100003450, symSize: 0x2E0 }
  - { offsetInCU: 0x7AE0, offset: 0x7AE0, size: 0x8, addend: 0x0, symName: __ZNSt3__1neB7v160006IP7StudentEEbRKNS_11__wrap_iterIT_EES7_, symObjAddr: 0x10D0, symBinAddr: 0x1000038E0, symSize: 0x30 }
  - { offsetInCU: 0x7C8E, offset: 0x7C8E, size: 0x8, addend: 0x0, symName: __ZNSt3__14endlB7v160006IcNS_11char_traitsIcEEEERNS_13basic_ostreamIT_T0_EES7_, symObjAddr: 0x1290, symBinAddr: 0x100003AA0, symSize: 0x50 }
  - { offsetInCU: 0x7CCE, offset: 0x7CCE, size: 0x8, addend: 0x0, symName: __ZNSt3__1neB7v160006IPK7StudentEEbRKNS_11__wrap_iterIT_EES8_, symObjAddr: 0x1340, symBinAddr: 0x100003B50, symSize: 0x30 }
  - { offsetInCU: 0x7D11, offset: 0x7D11, size: 0x8, addend: 0x0, symName: __ZNSt3__1lsB7v160006IcNS_11char_traitsIcEENS_9allocatorIcEEEERNS_13basic_ostreamIT_T0_EES9_RKNS_12basic_stringIS6_S7_T1_EE, symObjAddr: 0x1390, symBinAddr: 0x100003BA0, symSize: 0x50 }
  - { offsetInCU: 0x7D69, offset: 0x7D69, size: 0x8, addend: 0x0, symName: __ZNSt3__1lsB7v160006IcNS_11char_traitsIcEEEERNS_13basic_ostreamIT_T0_EES7_RKNS_8__iom_t6E, symObjAddr: 0x13E0, symBinAddr: 0x100003BF0, symSize: 0x40 }
  - { offsetInCU: 0x7DB8, offset: 0x7DB8, size: 0x8, addend: 0x0, symName: __ZNSt3__1lsB7v160006IcNS_11char_traitsIcEEEERNS_13basic_ostreamIT_T0_EES7_RKNS_8__iom_t5E, symObjAddr: 0x1420, symBinAddr: 0x100003C30, symSize: 0x40 }
  - { offsetInCU: 0x7E04, offset: 0x7E04, size: 0x8, addend: 0x0, symName: __ZNSt3__14leftB7v160006ERNS_8ios_baseE, symObjAddr: 0x1490, symBinAddr: 0x100003CA0, symSize: 0x30 }
  - { offsetInCU: 0x7E32, offset: 0x7E32, size: 0x8, addend: 0x0, symName: __ZNSt3__14setwB7v160006Ei, symObjAddr: 0x14C0, symBinAddr: 0x100003CD0, symSize: 0x20 }
  - { offsetInCU: 0x7E60, offset: 0x7E60, size: 0x8, addend: 0x0, symName: __ZNSt3__15fixedB7v160006ERNS_8ios_baseE, symObjAddr: 0x14E0, symBinAddr: 0x100003CF0, symSize: 0x30 }
  - { offsetInCU: 0x7E8E, offset: 0x7E8E, size: 0x8, addend: 0x0, symName: __ZNSt3__112setprecisionB7v160006Ei, symObjAddr: 0x1510, symBinAddr: 0x100003D20, symSize: 0x20 }
  - { offsetInCU: 0x7EC5, offset: 0x7EC5, size: 0x8, addend: 0x0, symName: __ZNSt3__119__debug_db_insert_cB7v160006INS_12basic_stringIcNS_11char_traitsIcEENS_9allocatorIcEEEEEEvPT_, symObjAddr: 0x1760, symBinAddr: 0x100003F70, symSize: 0x10 }
  - { offsetInCU: 0x7EF6, offset: 0x7EF6, size: 0x8, addend: 0x0, symName: __ZNSt3__130__libcpp_is_constant_evaluatedB7v160006Ev, symObjAddr: 0x18E0, symBinAddr: 0x1000040F0, symSize: 0x10 }
  - { offsetInCU: 0x7F13, offset: 0x7F13, size: 0x8, addend: 0x0, symName: __ZNSt3__117__libcpp_allocateB7v160006Emm, symObjAddr: 0x1BC0, symBinAddr: 0x1000043D0, symSize: 0x20 }
  - { offsetInCU: 0x7F50, offset: 0x7F50, size: 0x8, addend: 0x0, symName: __ZNSt3__121__libcpp_operator_newB7v160006IJmEEEPvDpT_, symObjAddr: 0x1C00, symBinAddr: 0x100004410, symSize: 0x20 }
  - { offsetInCU: 0x7F89, offset: 0x7F89, size: 0x8, addend: 0x0, symName: __ZNSt3__119__debug_db_insert_cB7v160006INS_6vectorI7StudentNS_9allocatorIS2_EEEEEEvPT_, symObjAddr: 0x2000, symBinAddr: 0x100004810, symSize: 0x10 }
  - { offsetInCU: 0x7FBA, offset: 0x7FBA, size: 0x8, addend: 0x0, symName: __ZNSt3__118__debug_db_erase_cB7v160006INS_6vectorI7StudentNS_9allocatorIS2_EEEEEEvPT_, symObjAddr: 0x2280, symBinAddr: 0x100004A90, symSize: 0x10 }
  - { offsetInCU: 0x7FEB, offset: 0x7FEB, size: 0x8, addend: 0x0, symName: __ZNSt3__112__to_addressB7v160006I7StudentEEPT_S3_, symObjAddr: 0x23B0, symBinAddr: 0x100004BC0, symSize: 0x10 }
  - { offsetInCU: 0x8020, offset: 0x8020, size: 0x8, addend: 0x0, symName: __ZNSt3__119__libcpp_deallocateB7v160006EPvmm, symObjAddr: 0x2510, symBinAddr: 0x100004D20, symSize: 0x30 }
  - { offsetInCU: 0x8068, offset: 0x8068, size: 0x8, addend: 0x0, symName: __ZNSt3__127__do_deallocate_handle_sizeB7v160006IJEEEvPvmDpT_, symObjAddr: 0x2540, symBinAddr: 0x100004D50, symSize: 0x20 }
  - { offsetInCU: 0x80A6, offset: 0x80A6, size: 0x8, addend: 0x0, symName: __ZNSt3__124__libcpp_operator_deleteB7v160006IJPvEEEvDpT_, symObjAddr: 0x2560, symBinAddr: 0x100004D70, symSize: 0x20 }
  - { offsetInCU: 0x80DB, offset: 0x80DB, size: 0x8, addend: 0x0, symName: __ZNSt3__116__pad_and_outputB7v160006IcNS_11char_traitsIcEEEENS_19ostreambuf_iteratorIT_T0_EES6_PKS4_S8_S8_RNS_8ios_baseES4_, symObjAddr: 0x2A00, symBinAddr: 0x100005210, symSize: 0x220 }
  - { offsetInCU: 0x81AB, offset: 0x81AB, size: 0x8, addend: 0x0, symName: __ZNSt3__112__to_addressB7v160006IKcEEPT_S3_, symObjAddr: 0x2E30, symBinAddr: 0x100005640, symSize: 0x10 }
  - { offsetInCU: 0x8213, offset: 0x8213, size: 0x8, addend: 0x0, symName: __ZNSt3__19use_facetB7v160006INS_5ctypeIcEEEERKT_RKNS_6localeE, symObjAddr: 0x30D0, symBinAddr: 0x1000058E0, symSize: 0x30 }
  - { offsetInCU: 0x85F3, offset: 0x85F3, size: 0x8, addend: 0x0, symName: __ZNSt3__118__constexpr_strlenB7v160006EPKc, symObjAddr: 0x3130, symBinAddr: 0x100005940, symSize: 0x20 }
  - { offsetInCU: 0x8820, offset: 0x8820, size: 0x8, addend: 0x0, symName: __ZNSt3__125__debug_db_invalidate_allB7v160006INS_12basic_stringIcNS_11char_traitsIcEENS_9allocatorIcEEEEEEvPT_, symObjAddr: 0x3460, symBinAddr: 0x100005C70, symSize: 0x10 }
  - { offsetInCU: 0x8A86, offset: 0x8A86, size: 0x8, addend: 0x0, symName: __ZNSt3__13maxB7v160006ImEERKT_S3_S3_, symObjAddr: 0x3CC0, symBinAddr: 0x1000064D0, symSize: 0x30 }
  - { offsetInCU: 0x8AC9, offset: 0x8AC9, size: 0x8, addend: 0x0, symName: __ZNSt3__13minB7v160006ImEERKT_S3_S3_, symObjAddr: 0x3CF0, symBinAddr: 0x100006500, symSize: 0x30 }
  - { offsetInCU: 0x8B0C, offset: 0x8B0C, size: 0x8, addend: 0x0, symName: __ZNSt3__13minB7v160006ImNS_6__lessImmEEEERKT_S5_S5_T0_, symObjAddr: 0x3D60, symBinAddr: 0x100006570, symSize: 0x50 }
  - { offsetInCU: 0x8BA1, offset: 0x8BA1, size: 0x8, addend: 0x0, symName: __ZNSt3__120__throw_length_errorB7v160006EPKc, symObjAddr: 0x3E30, symBinAddr: 0x100006640, symSize: 0x70 }
  - { offsetInCU: 0x8BC9, offset: 0x8BC9, size: 0x8, addend: 0x0, symName: __ZNSt3__13maxB7v160006ImNS_6__lessImmEEEERKT_S5_S5_T0_, symObjAddr: 0x3F10, symBinAddr: 0x100006720, symSize: 0x50 }
  - { offsetInCU: 0x8C23, offset: 0x8C23, size: 0x8, addend: 0x0, symName: __ZNSt3__119__allocate_at_leastB7v160006INS_9allocatorI7StudentEEEENS_19__allocation_resultINS_16allocator_traitsIT_E7pointerEEERS6_m, symObjAddr: 0x4050, symBinAddr: 0x100006860, symSize: 0x40 }
  - { offsetInCU: 0x8C66, offset: 0x8C66, size: 0x8, addend: 0x0, symName: __ZNSt3__142__uninitialized_allocator_move_if_noexceptB7v160006INS_9allocatorI7StudentEENS_16reverse_iteratorIPS2_EES6_S6_EET2_RT_T0_T1_S7_, symObjAddr: 0x4210, symBinAddr: 0x100006A20, symSize: 0x190 }
  - { offsetInCU: 0x8D05, offset: 0x8D05, size: 0x8, addend: 0x0, symName: __ZNSt3__14swapB7v160006IP7StudentEEvRT_S4_, symObjAddr: 0x43F0, symBinAddr: 0x100006C00, symSize: 0x40 }
  - { offsetInCU: 0x8D56, offset: 0x8D56, size: 0x8, addend: 0x0, symName: __ZNSt3__125__debug_db_invalidate_allB7v160006INS_6vectorI7StudentNS_9allocatorIS2_EEEEEEvPT_, symObjAddr: 0x44D0, symBinAddr: 0x100006CE0, symSize: 0x10 }
  - { offsetInCU: 0x8D87, offset: 0x8D87, size: 0x8, addend: 0x0, symName: __ZNSt3__122__make_exception_guardB7v160006INS_29_AllocatorDestroyRangeReverseINS_9allocatorI7StudentEENS_16reverse_iteratorIPS3_EEEEEENS_28__exception_guard_exceptionsIT_EESA_, symObjAddr: 0x44E0, symBinAddr: 0x100006CF0, symSize: 0x60 }
  - { offsetInCU: 0x8DBC, offset: 0x8DBC, size: 0x8, addend: 0x0, symName: __ZNSt3__1neB7v160006IP7StudentS2_EEbRKNS_16reverse_iteratorIT_EERKNS3_IT0_EE, symObjAddr: 0x4580, symBinAddr: 0x100006D90, symSize: 0x40 }
  - { offsetInCU: 0x8E08, offset: 0x8E08, size: 0x8, addend: 0x0, symName: __ZNSt3__112__to_addressB7v160006INS_16reverse_iteratorIP7StudentEEvEENS_5decayIDTclsr19__to_address_helperIT_EE6__callclsr3stdE7declvalIRKS6_EEEEE4typeES8_, symObjAddr: 0x45C0, symBinAddr: 0x100006DD0, symSize: 0x20 }
  - { offsetInCU: 0x8E67, offset: 0x8E67, size: 0x8, addend: 0x0, symName: __ZNSt3__119__allocator_destroyB7v160006INS_9allocatorI7StudentEENS_16reverse_iteratorINS4_IPS2_EEEES7_EEvRT_T0_T1_, symObjAddr: 0x48B0, symBinAddr: 0x1000070C0, symSize: 0x70 }
  - { offsetInCU: 0x8ECA, offset: 0x8ECA, size: 0x8, addend: 0x0, symName: __ZNSt3__1neB7v160006INS_16reverse_iteratorIP7StudentEES4_EEbRKNS1_IT_EERKNS1_IT0_EE, symObjAddr: 0x4950, symBinAddr: 0x100007160, symSize: 0x50 }
  - { offsetInCU: 0x8F16, offset: 0x8F16, size: 0x8, addend: 0x0, symName: __ZNSt3__112__to_addressB7v160006INS_16reverse_iteratorINS1_IP7StudentEEEEvEENS_5decayIDTclsr19__to_address_helperIT_EE6__callclsr3stdE7declvalIRKS7_EEEEE4typeES9_, symObjAddr: 0x49A0, symBinAddr: 0x1000071B0, symSize: 0x20 }
  - { offsetInCU: 0x8F75, offset: 0x8F75, size: 0x8, addend: 0x0, symName: __ZNSt3__1eqB7v160006IP7StudentEEbRKNS_11__wrap_iterIT_EES7_, symObjAddr: 0x4D80, symBinAddr: 0x100007590, symSize: 0x40 }
  - { offsetInCU: 0x8FB8, offset: 0x8FB8, size: 0x8, addend: 0x0, symName: __ZNSt3__1eqB7v160006IPK7StudentEEbRKNS_11__wrap_iterIT_EES8_, symObjAddr: 0x4EB0, symBinAddr: 0x1000076C0, symSize: 0x40 }
  - { offsetInCU: 0x91BE, offset: 0x91BE, size: 0x8, addend: 0x0, symName: __ZSt28__throw_bad_array_new_lengthB7v160006v, symObjAddr: 0x1B80, symBinAddr: 0x100004390, symSize: 0x40 }
  - { offsetInCU: 0x97D9, offset: 0x97D9, size: 0x8, addend: 0x0, symName: __ZNSt3__16vectorI7StudentNS_9allocatorIS1_EEE26__swap_out_circular_bufferERNS_14__split_bufferIS1_RS3_EE, symObjAddr: 0x3AE0, symBinAddr: 0x1000062F0, symSize: 0x130 }
  - { offsetInCU: 0xBA95, offset: 0xBA95, size: 0x8, addend: 0x0, symName: _main, symObjAddr: 0x0, symBinAddr: 0x100002810, symSize: 0xA0 }
  - { offsetInCU: 0xBABE, offset: 0xBABE, size: 0x8, addend: 0x0, symName: __ZNSt3__16vectorI7StudentNS_9allocatorIS1_EEEC1B7v160006Ev, symObjAddr: 0xA0, symBinAddr: 0x1000028B0, symSize: 0x20 }
  - { offsetInCU: 0xBAE6, offset: 0xBAE6, size: 0x8, addend: 0x0, symName: __Z8readDataRNSt3__16vectorI7StudentNS_9allocatorIS1_EEEE, symObjAddr: 0xC0, symBinAddr: 0x1000028D0, symSize: 0x210 }
  - { offsetInCU: 0xBB48, offset: 0xBB48, size: 0x8, addend: 0x0, symName: __Z13studentsGradeRNSt3__16vectorI7StudentNS_9allocatorIS1_EEEE, symObjAddr: 0x2D0, symBinAddr: 0x100002AE0, symSize: 0x110 }
  - { offsetInCU: 0xBBC3, offset: 0xBBC3, size: 0x8, addend: 0x0, symName: __Z12highestGradeRNSt3__16vectorI7StudentNS_9allocatorIS1_EEEE, symObjAddr: 0x3E0, symBinAddr: 0x100002BF0, symSize: 0xA0 }
  - { offsetInCU: 0xBC3E, offset: 0xBC3E, size: 0x8, addend: 0x0, symName: __Z17writeStudentsDataRKNSt3__16vectorI7StudentNS_9allocatorIS1_EEEE, symObjAddr: 0x480, symBinAddr: 0x100002C90, symSize: 0x590 }
  - { offsetInCU: 0xBD25, offset: 0xBD25, size: 0x8, addend: 0x0, symName: __ZNSt3__16vectorI7StudentNS_9allocatorIS1_EEED1B7v160006Ev, symObjAddr: 0xA10, symBinAddr: 0x100003220, symSize: 0x20 }
  - { offsetInCU: 0xBE6F, offset: 0xBE6F, size: 0x8, addend: 0x0, symName: __ZNSt3__114basic_ifstreamIcNS_11char_traitsIcEEEC1EPKcj, symObjAddr: 0xA40, symBinAddr: 0x100003250, symSize: 0x180 }
  - { offsetInCU: 0xBEB8, offset: 0xBEB8, size: 0x8, addend: 0x0, symName: __ZNKSt3__19basic_iosIcNS_11char_traitsIcEEEntB7v160006Ev, symObjAddr: 0xBC0, symBinAddr: 0x1000033D0, symSize: 0x20 }
  - { offsetInCU: 0xBEE2, offset: 0xBEE2, size: 0x8, addend: 0x0, symName: __ZN7StudentC1Ev, symObjAddr: 0xC20, symBinAddr: 0x100003430, symSize: 0x20 }
  - { offsetInCU: 0xBF0C, offset: 0xBF0C, size: 0x8, addend: 0x0, symName: __ZNSt3__16vectorI7StudentNS_9allocatorIS1_EEE9push_backB7v160006ERKS1_, symObjAddr: 0xF20, symBinAddr: 0x100003730, symSize: 0x60 }
  - { offsetInCU: 0xBF42, offset: 0xBF42, size: 0x8, addend: 0x0, symName: __ZN7StudentD1Ev, symObjAddr: 0xF80, symBinAddr: 0x100003790, symSize: 0x20 }
  - { offsetInCU: 0xBF6C, offset: 0xBF6C, size: 0x8, addend: 0x0, symName: __ZNSt3__114basic_ifstreamIcNS_11char_traitsIcEEE5closeEv, symObjAddr: 0xFA0, symBinAddr: 0x1000037B0, symSize: 0x50 }
  - { offsetInCU: 0xBF98, offset: 0xBF98, size: 0x8, addend: 0x0, symName: __ZNSt3__114basic_ifstreamIcNS_11char_traitsIcEEED1Ev, symObjAddr: 0xFF0, symBinAddr: 0x100003800, symSize: 0x80 }
  - { offsetInCU: 0xBFC3, offset: 0xBFC3, size: 0x8, addend: 0x0, symName: __ZNSt3__16vectorI7StudentNS_9allocatorIS1_EEE5beginB7v160006Ev, symObjAddr: 0x1070, symBinAddr: 0x100003880, symSize: 0x30 }
  - { offsetInCU: 0xBFE9, offset: 0xBFE9, size: 0x8, addend: 0x0, symName: __ZNSt3__16vectorI7StudentNS_9allocatorIS1_EEE3endB7v160006Ev, symObjAddr: 0x10A0, symBinAddr: 0x1000038B0, symSize: 0x30 }
  - { offsetInCU: 0xC010, offset: 0xC010, size: 0x8, addend: 0x0, symName: __ZNKSt3__111__wrap_iterIP7StudentEdeB7v160006Ev, symObjAddr: 0x1100, symBinAddr: 0x100003910, symSize: 0x20 }
  - { offsetInCU: 0xC035, offset: 0xC035, size: 0x8, addend: 0x0, symName: __ZNSt3__112basic_stringIcNS_11char_traitsIcEENS_9allocatorIcEEEaSB7v160006EPKc, symObjAddr: 0x1120, symBinAddr: 0x100003930, symSize: 0x30 }
  - { offsetInCU: 0xC069, offset: 0xC069, size: 0x8, addend: 0x0, symName: __ZNSt3__111__wrap_iterIP7StudentEppB7v160006Ev, symObjAddr: 0x1150, symBinAddr: 0x100003960, symSize: 0x20 }
  - { offsetInCU: 0xC0A7, offset: 0xC0A7, size: 0x8, addend: 0x0, symName: __ZNSt3__114basic_ofstreamIcNS_11char_traitsIcEEEC1Ev, symObjAddr: 0x1170, symBinAddr: 0x100003980, symSize: 0x100 }
  - { offsetInCU: 0xC0D2, offset: 0xC0D2, size: 0x8, addend: 0x0, symName: __ZNSt3__113basic_ostreamIcNS_11char_traitsIcEEElsB7v160006EPFRS3_S4_E, symObjAddr: 0x1270, symBinAddr: 0x100003A80, symSize: 0x20 }
  - { offsetInCU: 0xC104, offset: 0xC104, size: 0x8, addend: 0x0, symName: __ZNKSt3__16vectorI7StudentNS_9allocatorIS1_EEE5beginB7v160006Ev, symObjAddr: 0x12E0, symBinAddr: 0x100003AF0, symSize: 0x30 }
  - { offsetInCU: 0xC12A, offset: 0xC12A, size: 0x8, addend: 0x0, symName: __ZNKSt3__16vectorI7StudentNS_9allocatorIS1_EEE3endB7v160006Ev, symObjAddr: 0x1310, symBinAddr: 0x100003B20, symSize: 0x30 }
  - { offsetInCU: 0xC151, offset: 0xC151, size: 0x8, addend: 0x0, symName: __ZNKSt3__111__wrap_iterIPK7StudentEdeB7v160006Ev, symObjAddr: 0x1370, symBinAddr: 0x100003B80, symSize: 0x20 }
  - { offsetInCU: 0xC176, offset: 0xC176, size: 0x8, addend: 0x0, symName: __ZNSt3__113basic_ostreamIcNS_11char_traitsIcEEElsB7v160006EPFRNS_8ios_baseES5_E, symObjAddr: 0x1460, symBinAddr: 0x100003C70, symSize: 0x30 }
  - { offsetInCU: 0xC1A9, offset: 0xC1A9, size: 0x8, addend: 0x0, symName: __ZNSt3__111__wrap_iterIPK7StudentEppB7v160006Ev, symObjAddr: 0x1530, symBinAddr: 0x100003D40, symSize: 0x20 }
  - { offsetInCU: 0xC1CD, offset: 0xC1CD, size: 0x8, addend: 0x0, symName: __ZNSt3__114basic_ofstreamIcNS_11char_traitsIcEEE5closeEv, symObjAddr: 0x1550, symBinAddr: 0x100003D60, symSize: 0x50 }
  - { offsetInCU: 0xC1F9, offset: 0xC1F9, size: 0x8, addend: 0x0, symName: __ZNSt3__114basic_ofstreamIcNS_11char_traitsIcEEED1Ev, symObjAddr: 0x15A0, symBinAddr: 0x100003DB0, symSize: 0x80 }
  - { offsetInCU: 0xC225, offset: 0xC225, size: 0x8, addend: 0x0, symName: __ZN7StudentC2Ev, symObjAddr: 0x1620, symBinAddr: 0x100003E30, symSize: 0xB0 }
  - { offsetInCU: 0xC250, offset: 0xC250, size: 0x8, addend: 0x0, symName: __ZNSt3__112basic_stringIcNS_11char_traitsIcEENS_9allocatorIcEEEC1B7v160006Ev, symObjAddr: 0x16D0, symBinAddr: 0x100003EE0, symSize: 0x20 }
  - { offsetInCU: 0xC279, offset: 0xC279, size: 0x8, addend: 0x0, symName: __ZNSt3__112basic_stringIcNS_11char_traitsIcEENS_9allocatorIcEEEC2B7v160006Ev, symObjAddr: 0x16F0, symBinAddr: 0x100003F00, symSize: 0x40 }
  - { offsetInCU: 0xC2A7, offset: 0xC2A7, size: 0x8, addend: 0x0, symName: __ZNSt3__117__compressed_pairINS_12basic_stringIcNS_11char_traitsIcEENS_9allocatorIcEEE5__repES5_EC1B7v160006INS_18__default_init_tagESA_EEOT_OT0_, symObjAddr: 0x1730, symBinAddr: 0x100003F40, symSize: 0x30 }
  - { offsetInCU: 0xC2FE, offset: 0xC2FE, size: 0x8, addend: 0x0, symName: __ZNSt3__112basic_stringIcNS_11char_traitsIcEENS_9allocatorIcEEE14__default_initB7v160006Ev, symObjAddr: 0x1770, symBinAddr: 0x100003F80, symSize: 0xC0 }
  - { offsetInCU: 0xC350, offset: 0xC350, size: 0x8, addend: 0x0, symName: __ZNSt3__117__compressed_pairINS_12basic_stringIcNS_11char_traitsIcEENS_9allocatorIcEEE5__repES5_EC2B7v160006INS_18__default_init_tagESA_EEOT_OT0_, symObjAddr: 0x1830, symBinAddr: 0x100004040, symSize: 0x30 }
  - { offsetInCU: 0xC3A7, offset: 0xC3A7, size: 0x8, addend: 0x0, symName: __ZNSt3__122__compressed_pair_elemINS_12basic_stringIcNS_11char_traitsIcEENS_9allocatorIcEEE5__repELi0ELb0EEC2B7v160006ENS_18__default_init_tagE, symObjAddr: 0x1860, symBinAddr: 0x100004070, symSize: 0x10 }
  - { offsetInCU: 0xC3DB, offset: 0xC3DB, size: 0x8, addend: 0x0, symName: __ZNSt3__122__compressed_pair_elemINS_9allocatorIcEELi1ELb1EEC2B7v160006ENS_18__default_init_tagE, symObjAddr: 0x1870, symBinAddr: 0x100004080, symSize: 0x20 }
  - { offsetInCU: 0xC40F, offset: 0xC40F, size: 0x8, addend: 0x0, symName: __ZNSt3__19allocatorIcEC2B7v160006Ev, symObjAddr: 0x1890, symBinAddr: 0x1000040A0, symSize: 0x20 }
  - { offsetInCU: 0xC438, offset: 0xC438, size: 0x8, addend: 0x0, symName: __ZNSt3__116__non_trivial_ifILb1ENS_9allocatorIcEEEC2B7v160006Ev, symObjAddr: 0x18B0, symBinAddr: 0x1000040C0, symSize: 0x10 }
  - { offsetInCU: 0xC461, offset: 0xC461, size: 0x8, addend: 0x0, symName: __ZNSt3__117__compressed_pairINS_12basic_stringIcNS_11char_traitsIcEENS_9allocatorIcEEE5__repES5_E5firstB7v160006Ev, symObjAddr: 0x18C0, symBinAddr: 0x1000040D0, symSize: 0x20 }
  - { offsetInCU: 0xC486, offset: 0xC486, size: 0x8, addend: 0x0, symName: __ZNSt3__112basic_stringIcNS_11char_traitsIcEENS_9allocatorIcEEE11__recommendB7v160006Em, symObjAddr: 0x18F0, symBinAddr: 0x100004100, symSize: 0x90 }
  - { offsetInCU: 0xC4B9, offset: 0xC4B9, size: 0x8, addend: 0x0, symName: __ZNSt3__116allocator_traitsINS_9allocatorIcEEE8allocateB7v160006ERS2_m, symObjAddr: 0x1980, symBinAddr: 0x100004190, symSize: 0x30 }
  - { offsetInCU: 0xC4EC, offset: 0xC4EC, size: 0x8, addend: 0x0, symName: __ZNSt3__112basic_stringIcNS_11char_traitsIcEENS_9allocatorIcEEE7__allocB7v160006Ev, symObjAddr: 0x19B0, symBinAddr: 0x1000041C0, symSize: 0x20 }
  - { offsetInCU: 0xC511, offset: 0xC511, size: 0x8, addend: 0x0, symName: __ZNSt3__112basic_stringIcNS_11char_traitsIcEENS_9allocatorIcEEE16__begin_lifetimeB7v160006EPcm, symObjAddr: 0x19D0, symBinAddr: 0x1000041E0, symSize: 0x10 }
  - { offsetInCU: 0xC544, offset: 0xC544, size: 0x8, addend: 0x0, symName: __ZNSt3__112basic_stringIcNS_11char_traitsIcEENS_9allocatorIcEEE18__set_long_pointerB7v160006EPc, symObjAddr: 0x19E0, symBinAddr: 0x1000041F0, symSize: 0x30 }
  - { offsetInCU: 0xC578, offset: 0xC578, size: 0x8, addend: 0x0, symName: __ZNSt3__112basic_stringIcNS_11char_traitsIcEENS_9allocatorIcEEE14__set_long_capB7v160006Em, symObjAddr: 0x1A10, symBinAddr: 0x100004220, symSize: 0x70 }
  - { offsetInCU: 0xC5AC, offset: 0xC5AC, size: 0x8, addend: 0x0, symName: __ZNSt3__112basic_stringIcNS_11char_traitsIcEENS_9allocatorIcEEE15__set_long_sizeB7v160006Em, symObjAddr: 0x1A80, symBinAddr: 0x100004290, symSize: 0x30 }
  - { offsetInCU: 0xC5E0, offset: 0xC5E0, size: 0x8, addend: 0x0, symName: __ZNSt3__122__compressed_pair_elemINS_12basic_stringIcNS_11char_traitsIcEENS_9allocatorIcEEE5__repELi0ELb0EE5__getB7v160006Ev, symObjAddr: 0x1AB0, symBinAddr: 0x1000042C0, symSize: 0x10 }
  - { offsetInCU: 0xC605, offset: 0xC605, size: 0x8, addend: 0x0, symName: __ZNSt3__112basic_stringIcNS_11char_traitsIcEENS_9allocatorIcEEE10__align_itB7v160006ILm16EEEmm, symObjAddr: 0x1AC0, symBinAddr: 0x1000042D0, symSize: 0x20 }
  - { offsetInCU: 0xC633, offset: 0xC633, size: 0x8, addend: 0x0, symName: __ZNSt3__19allocatorIcE8allocateB7v160006Em, symObjAddr: 0x1AE0, symBinAddr: 0x1000042F0, symSize: 0x80 }
  - { offsetInCU: 0xC670, offset: 0xC670, size: 0x8, addend: 0x0, symName: __ZNSt3__116allocator_traitsINS_9allocatorIcEEE8max_sizeB7v160006IS2_vEEmRKS2_, symObjAddr: 0x1B60, symBinAddr: 0x100004370, symSize: 0x20 }
  - { offsetInCU: 0xC69E, offset: 0xC69E, size: 0x8, addend: 0x0, symName: __ZNKSt3__19allocatorIcE8max_sizeB7v160006Ev, symObjAddr: 0x1BE0, symBinAddr: 0x1000043F0, symSize: 0x20 }
  - { offsetInCU: 0xC6C3, offset: 0xC6C3, size: 0x8, addend: 0x0, symName: __ZNSt3__117__compressed_pairINS_12basic_stringIcNS_11char_traitsIcEENS_9allocatorIcEEE5__repES5_E6secondB7v160006Ev, symObjAddr: 0x1C20, symBinAddr: 0x100004430, symSize: 0x20 }
  - { offsetInCU: 0xC6E8, offset: 0xC6E8, size: 0x8, addend: 0x0, symName: __ZNSt3__122__compressed_pair_elemINS_9allocatorIcEELi1ELb1EE5__getB7v160006Ev, symObjAddr: 0x1C40, symBinAddr: 0x100004450, symSize: 0x10 }
  - { offsetInCU: 0xC70D, offset: 0xC70D, size: 0x8, addend: 0x0, symName: __ZN7StudentD2Ev, symObjAddr: 0x1C50, symBinAddr: 0x100004460, symSize: 0xA0 }
  - { offsetInCU: 0xC738, offset: 0xC738, size: 0x8, addend: 0x0, symName: __ZNSt3__114basic_ifstreamIcNS_11char_traitsIcEEED2Ev, symObjAddr: 0x1CF0, symBinAddr: 0x100004500, symSize: 0xA0 }
  - { offsetInCU: 0xC770, offset: 0xC770, size: 0x8, addend: 0x0, symName: __ZTv0_n24_NSt3__114basic_ifstreamIcNS_11char_traitsIcEEED1Ev, symObjAddr: 0x1D90, symBinAddr: 0x1000045A0, symSize: 0x20 }
  - { offsetInCU: 0xC786, offset: 0xC786, size: 0x8, addend: 0x0, symName: __ZNSt3__18ios_base4setfB7v160006Ejj, symObjAddr: 0x1DB0, symBinAddr: 0x1000045C0, symSize: 0x50 }
  - { offsetInCU: 0xC7D9, offset: 0xC7D9, size: 0x8, addend: 0x0, symName: __ZNSt3__18ios_base6unsetfB7v160006Ej, symObjAddr: 0x1E00, symBinAddr: 0x100004610, symSize: 0x20 }
  - { offsetInCU: 0xC80F, offset: 0xC80F, size: 0x8, addend: 0x0, symName: __ZNSt3__18__iom_t6C1B7v160006Ei, symObjAddr: 0x1E20, symBinAddr: 0x100004630, symSize: 0x30 }
  - { offsetInCU: 0xC846, offset: 0xC846, size: 0x8, addend: 0x0, symName: __ZNSt3__18__iom_t6C2B7v160006Ei, symObjAddr: 0x1E50, symBinAddr: 0x100004660, symSize: 0x20 }
  - { offsetInCU: 0xC87D, offset: 0xC87D, size: 0x8, addend: 0x0, symName: __ZNSt3__18__iom_t5C1B7v160006Ei, symObjAddr: 0x1E70, symBinAddr: 0x100004680, symSize: 0x30 }
  - { offsetInCU: 0xC8B4, offset: 0xC8B4, size: 0x8, addend: 0x0, symName: __ZNSt3__18__iom_t5C2B7v160006Ei, symObjAddr: 0x1EA0, symBinAddr: 0x1000046B0, symSize: 0x20 }
  - { offsetInCU: 0xC8EB, offset: 0xC8EB, size: 0x8, addend: 0x0, symName: __ZNSt3__114basic_ofstreamIcNS_11char_traitsIcEEED2Ev, symObjAddr: 0x1EC0, symBinAddr: 0x1000046D0, symSize: 0xA0 }
  - { offsetInCU: 0xC923, offset: 0xC923, size: 0x8, addend: 0x0, symName: __ZTv0_n24_NSt3__114basic_ofstreamIcNS_11char_traitsIcEEED1Ev, symObjAddr: 0x1F60, symBinAddr: 0x100004770, symSize: 0x20 }
  - { offsetInCU: 0xC93A, offset: 0xC93A, size: 0x8, addend: 0x0, symName: __ZNSt3__16vectorI7StudentNS_9allocatorIS1_EEEC2B7v160006Ev, symObjAddr: 0x1F80, symBinAddr: 0x100004790, symSize: 0x50 }
  - { offsetInCU: 0xC968, offset: 0xC968, size: 0x8, addend: 0x0, symName: __ZNSt3__117__compressed_pairIP7StudentNS_9allocatorIS1_EEEC1B7v160006IDnNS_18__default_init_tagEEEOT_OT0_, symObjAddr: 0x1FD0, symBinAddr: 0x1000047E0, symSize: 0x30 }
  - { offsetInCU: 0xC9BF, offset: 0xC9BF, size: 0x8, addend: 0x0, symName: __ZNSt3__117__compressed_pairIP7StudentNS_9allocatorIS1_EEEC2B7v160006IDnNS_18__default_init_tagEEEOT_OT0_, symObjAddr: 0x2010, symBinAddr: 0x100004820, symSize: 0x40 }
  - { offsetInCU: 0xCA16, offset: 0xCA16, size: 0x8, addend: 0x0, symName: __ZNSt3__122__compressed_pair_elemIP7StudentLi0ELb0EEC2B7v160006IDnvEEOT_, symObjAddr: 0x2050, symBinAddr: 0x100004860, symSize: 0x20 }
  - { offsetInCU: 0xCA57, offset: 0xCA57, size: 0x8, addend: 0x0, symName: __ZNSt3__122__compressed_pair_elemINS_9allocatorI7StudentEELi1ELb1EEC2B7v160006ENS_18__default_init_tagE, symObjAddr: 0x2070, symBinAddr: 0x100004880, symSize: 0x20 }
  - { offsetInCU: 0xCA8B, offset: 0xCA8B, size: 0x8, addend: 0x0, symName: __ZNSt3__19allocatorI7StudentEC2B7v160006Ev, symObjAddr: 0x2090, symBinAddr: 0x1000048A0, symSize: 0x20 }
  - { offsetInCU: 0xCAB4, offset: 0xCAB4, size: 0x8, addend: 0x0, symName: __ZNSt3__116__non_trivial_ifILb1ENS_9allocatorI7StudentEEEC2B7v160006Ev, symObjAddr: 0x20B0, symBinAddr: 0x1000048C0, symSize: 0x10 }
  - { offsetInCU: 0xCADD, offset: 0xCADD, size: 0x8, addend: 0x0, symName: __ZNSt3__16vectorI7StudentNS_9allocatorIS1_EEED2B7v160006Ev, symObjAddr: 0x20C0, symBinAddr: 0x1000048D0, symSize: 0x30 }
  - { offsetInCU: 0xCB06, offset: 0xCB06, size: 0x8, addend: 0x0, symName: __ZNSt3__16vectorI7StudentNS_9allocatorIS1_EEE16__destroy_vectorC1ERS4_, symObjAddr: 0x20F0, symBinAddr: 0x100004900, symSize: 0x30 }
  - { offsetInCU: 0xCB3E, offset: 0xCB3E, size: 0x8, addend: 0x0, symName: __ZNSt3__16vectorI7StudentNS_9allocatorIS1_EEE16__destroy_vectorclB7v160006Ev, symObjAddr: 0x2120, symBinAddr: 0x100004930, symSize: 0x90 }
  - { offsetInCU: 0xCB63, offset: 0xCB63, size: 0x8, addend: 0x0, symName: __ZNSt3__16vectorI7StudentNS_9allocatorIS1_EEE16__destroy_vectorC2ERS4_, symObjAddr: 0x21B0, symBinAddr: 0x1000049C0, symSize: 0x20 }
  - { offsetInCU: 0xCB9B, offset: 0xCB9B, size: 0x8, addend: 0x0, symName: __ZNKSt3__16vectorI7StudentNS_9allocatorIS1_EEE17__annotate_deleteB7v160006Ev, symObjAddr: 0x21D0, symBinAddr: 0x1000049E0, symSize: 0xB0 }
  - { offsetInCU: 0xCBC0, offset: 0xCBC0, size: 0x8, addend: 0x0, symName: __ZNSt3__16vectorI7StudentNS_9allocatorIS1_EEE7__clearB7v160006Ev, symObjAddr: 0x2290, symBinAddr: 0x100004AA0, symSize: 0x20 }
  - { offsetInCU: 0xCBE5, offset: 0xCBE5, size: 0x8, addend: 0x0, symName: __ZNSt3__116allocator_traitsINS_9allocatorI7StudentEEE10deallocateB7v160006ERS3_PS2_m, symObjAddr: 0x22B0, symBinAddr: 0x100004AC0, symSize: 0x30 }
  - { offsetInCU: 0xCC27, offset: 0xCC27, size: 0x8, addend: 0x0, symName: __ZNSt3__16vectorI7StudentNS_9allocatorIS1_EEE7__allocB7v160006Ev, symObjAddr: 0x22E0, symBinAddr: 0x100004AF0, symSize: 0x20 }
  - { offsetInCU: 0xCC4C, offset: 0xCC4C, size: 0x8, addend: 0x0, symName: __ZNKSt3__16vectorI7StudentNS_9allocatorIS1_EEE8capacityB7v160006Ev, symObjAddr: 0x2300, symBinAddr: 0x100004B10, symSize: 0x40 }
  - { offsetInCU: 0xCC71, offset: 0xCC71, size: 0x8, addend: 0x0, symName: __ZNKSt3__16vectorI7StudentNS_9allocatorIS1_EEE31__annotate_contiguous_containerB7v160006EPKvS6_S6_S6_, symObjAddr: 0x2340, symBinAddr: 0x100004B50, symSize: 0x20 }
  - { offsetInCU: 0xCCC6, offset: 0xCCC6, size: 0x8, addend: 0x0, symName: __ZNKSt3__16vectorI7StudentNS_9allocatorIS1_EEE4dataB7v160006Ev, symObjAddr: 0x2360, symBinAddr: 0x100004B70, symSize: 0x20 }
  - { offsetInCU: 0xCCEB, offset: 0xCCEB, size: 0x8, addend: 0x0, symName: __ZNKSt3__16vectorI7StudentNS_9allocatorIS1_EEE4sizeB7v160006Ev, symObjAddr: 0x2380, symBinAddr: 0x100004B90, symSize: 0x30 }
  - { offsetInCU: 0xCD10, offset: 0xCD10, size: 0x8, addend: 0x0, symName: __ZNSt3__16vectorI7StudentNS_9allocatorIS1_EEE22__base_destruct_at_endB7v160006EPS1_, symObjAddr: 0x23C0, symBinAddr: 0x100004BD0, symSize: 0x90 }
  - { offsetInCU: 0xCD53, offset: 0xCD53, size: 0x8, addend: 0x0, symName: __ZNSt3__116allocator_traitsINS_9allocatorI7StudentEEE7destroyB7v160006IS2_vEEvRS3_PT_, symObjAddr: 0x2450, symBinAddr: 0x100004C60, symSize: 0x30 }
  - { offsetInCU: 0xCD90, offset: 0xCD90, size: 0x8, addend: 0x0, symName: __ZNSt3__19allocatorI7StudentE7destroyB7v160006EPS1_, symObjAddr: 0x2480, symBinAddr: 0x100004C90, symSize: 0x20 }
  - { offsetInCU: 0xCDC3, offset: 0xCDC3, size: 0x8, addend: 0x0, symName: __ZNSt3__19allocatorI7StudentE10deallocateB7v160006EPS1_m, symObjAddr: 0x24A0, symBinAddr: 0x100004CB0, symSize: 0x70 }
  - { offsetInCU: 0xCE04, offset: 0xCE04, size: 0x8, addend: 0x0, symName: __ZNSt3__117__compressed_pairIP7StudentNS_9allocatorIS1_EEE6secondB7v160006Ev, symObjAddr: 0x2580, symBinAddr: 0x100004D90, symSize: 0x20 }
  - { offsetInCU: 0xCE29, offset: 0xCE29, size: 0x8, addend: 0x0, symName: __ZNSt3__122__compressed_pair_elemINS_9allocatorI7StudentEELi1ELb1EE5__getB7v160006Ev, symObjAddr: 0x25A0, symBinAddr: 0x100004DB0, symSize: 0x10 }
  - { offsetInCU: 0xCE4E, offset: 0xCE4E, size: 0x8, addend: 0x0, symName: __ZNKSt3__16vectorI7StudentNS_9allocatorIS1_EEE9__end_capB7v160006Ev, symObjAddr: 0x25B0, symBinAddr: 0x100004DC0, symSize: 0x20 }
  - { offsetInCU: 0xCE73, offset: 0xCE73, size: 0x8, addend: 0x0, symName: __ZNKSt3__117__compressed_pairIP7StudentNS_9allocatorIS1_EEE5firstB7v160006Ev, symObjAddr: 0x25D0, symBinAddr: 0x100004DE0, symSize: 0x20 }
  - { offsetInCU: 0xCE98, offset: 0xCE98, size: 0x8, addend: 0x0, symName: __ZNKSt3__122__compressed_pair_elemIP7StudentLi0ELb0EE5__getB7v160006Ev, symObjAddr: 0x25F0, symBinAddr: 0x100004E00, symSize: 0x10 }
  - { offsetInCU: 0xCEBD, offset: 0xCEBD, size: 0x8, addend: 0x0, symName: __ZNSt3__19basic_iosIcNS_11char_traitsIcEEEC2B7v160006Ev, symObjAddr: 0x2600, symBinAddr: 0x100004E10, symSize: 0x40 }
  - { offsetInCU: 0xCEE6, offset: 0xCEE6, size: 0x8, addend: 0x0, symName: __ZNSt3__113basic_istreamIcNS_11char_traitsIcEEEC2B7v160006EPNS_15basic_streambufIcS2_EE, symObjAddr: 0x2640, symBinAddr: 0x100004E50, symSize: 0x50 }
  - { offsetInCU: 0xCF29, offset: 0xCF29, size: 0x8, addend: 0x0, symName: __ZNSt3__19basic_iosIcNS_11char_traitsIcEEE8setstateB7v160006Ej, symObjAddr: 0x2690, symBinAddr: 0x100004EA0, symSize: 0x30 }
  - { offsetInCU: 0xCF5D, offset: 0xCF5D, size: 0x8, addend: 0x0, symName: __ZNSt3__18ios_baseC2B7v160006Ev, symObjAddr: 0x26C0, symBinAddr: 0x100004ED0, symSize: 0x20 }
  - { offsetInCU: 0xCF85, offset: 0xCF85, size: 0x8, addend: 0x0, symName: __ZNSt3__19basic_iosIcNS_11char_traitsIcEEE4initB7v160006EPNS_15basic_streambufIcS2_EE, symObjAddr: 0x26E0, symBinAddr: 0x100004EF0, symSize: 0x50 }
  - { offsetInCU: 0xCFBB, offset: 0xCFBB, size: 0x8, addend: 0x0, symName: __ZNSt3__111char_traitsIcE3eofEv, symObjAddr: 0x2730, symBinAddr: 0x100004F40, symSize: 0x10 }
  - { offsetInCU: 0xCFCE, offset: 0xCFCE, size: 0x8, addend: 0x0, symName: __ZNSt3__18ios_base8setstateB7v160006Ej, symObjAddr: 0x2740, symBinAddr: 0x100004F50, symSize: 0x30 }
  - { offsetInCU: 0xD004, offset: 0xD004, size: 0x8, addend: 0x0, symName: __ZNKSt3__19basic_iosIcNS_11char_traitsIcEEE4failB7v160006Ev, symObjAddr: 0x2770, symBinAddr: 0x100004F80, symSize: 0x20 }
  - { offsetInCU: 0xD028, offset: 0xD028, size: 0x8, addend: 0x0, symName: __ZNKSt3__18ios_base4failB7v160006Ev, symObjAddr: 0x2790, symBinAddr: 0x100004FA0, symSize: 0x20 }
  - { offsetInCU: 0xD04F, offset: 0xD04F, size: 0x8, addend: 0x0, symName: __ZNSt3__111char_traitsIcE6lengthEPKc, symObjAddr: 0x29A0, symBinAddr: 0x1000051B0, symSize: 0x40 }
  - { offsetInCU: 0xD090, offset: 0xD090, size: 0x8, addend: 0x0, symName: __ZNKSt3__113basic_ostreamIcNS_11char_traitsIcEEE6sentrycvbB7v160006Ev, symObjAddr: 0x29E0, symBinAddr: 0x1000051F0, symSize: 0x20 }
  - { offsetInCU: 0xD0B5, offset: 0xD0B5, size: 0x8, addend: 0x0, symName: __ZNSt3__119ostreambuf_iteratorIcNS_11char_traitsIcEEEC1B7v160006ERNS_13basic_ostreamIcS2_EE, symObjAddr: 0x2C20, symBinAddr: 0x100005430, symSize: 0x30 }
  - { offsetInCU: 0xD0EB, offset: 0xD0EB, size: 0x8, addend: 0x0, symName: __ZNKSt3__18ios_base5flagsB7v160006Ev, symObjAddr: 0x2C50, symBinAddr: 0x100005460, symSize: 0x20 }
  - { offsetInCU: 0xD111, offset: 0xD111, size: 0x8, addend: 0x0, symName: __ZNKSt3__19basic_iosIcNS_11char_traitsIcEEE4fillB7v160006Ev, symObjAddr: 0x2C70, symBinAddr: 0x100005480, symSize: 0x70 }
  - { offsetInCU: 0xD138, offset: 0xD138, size: 0x8, addend: 0x0, symName: __ZNKSt3__119ostreambuf_iteratorIcNS_11char_traitsIcEEE6failedB7v160006Ev, symObjAddr: 0x2CE0, symBinAddr: 0x1000054F0, symSize: 0x20 }
  - { offsetInCU: 0xD15C, offset: 0xD15C, size: 0x8, addend: 0x0, symName: __ZNKSt3__18ios_base5widthB7v160006Ev, symObjAddr: 0x2D00, symBinAddr: 0x100005510, symSize: 0x20 }
  - { offsetInCU: 0xD183, offset: 0xD183, size: 0x8, addend: 0x0, symName: __ZNSt3__115basic_streambufIcNS_11char_traitsIcEEE5sputnB7v160006EPKcl, symObjAddr: 0x2D20, symBinAddr: 0x100005530, symSize: 0x30 }
  - { offsetInCU: 0xD1C4, offset: 0xD1C4, size: 0x8, addend: 0x0, symName: __ZNSt3__112basic_stringIcNS_11char_traitsIcEENS_9allocatorIcEEEC1B7v160006Emc, symObjAddr: 0x2D50, symBinAddr: 0x100005560, symSize: 0x30 }
  - { offsetInCU: 0xD20B, offset: 0xD20B, size: 0x8, addend: 0x0, symName: __ZNKSt3__112basic_stringIcNS_11char_traitsIcEENS_9allocatorIcEEE4dataB7v160006Ev, symObjAddr: 0x2D80, symBinAddr: 0x100005590, symSize: 0x30 }
  - { offsetInCU: 0xD22F, offset: 0xD22F, size: 0x8, addend: 0x0, symName: __ZNSt3__18ios_base5widthB7v160006El, symObjAddr: 0x2DB0, symBinAddr: 0x1000055C0, symSize: 0x30 }
  - { offsetInCU: 0xD274, offset: 0xD274, size: 0x8, addend: 0x0, symName: __ZNSt3__112basic_stringIcNS_11char_traitsIcEENS_9allocatorIcEEEC2B7v160006Emc, symObjAddr: 0x2DE0, symBinAddr: 0x1000055F0, symSize: 0x50 }
  - { offsetInCU: 0xD2BB, offset: 0xD2BB, size: 0x8, addend: 0x0, symName: __ZNKSt3__112basic_stringIcNS_11char_traitsIcEENS_9allocatorIcEEE13__get_pointerB7v160006Ev, symObjAddr: 0x2E40, symBinAddr: 0x100005650, symSize: 0x50 }
  - { offsetInCU: 0xD2E0, offset: 0xD2E0, size: 0x8, addend: 0x0, symName: __ZNKSt3__112basic_stringIcNS_11char_traitsIcEENS_9allocatorIcEEE9__is_longB7v160006Ev, symObjAddr: 0x2E90, symBinAddr: 0x1000056A0, symSize: 0x60 }
  - { offsetInCU: 0xD305, offset: 0xD305, size: 0x8, addend: 0x0, symName: __ZNKSt3__112basic_stringIcNS_11char_traitsIcEENS_9allocatorIcEEE18__get_long_pointerB7v160006Ev, symObjAddr: 0x2EF0, symBinAddr: 0x100005700, symSize: 0x20 }
  - { offsetInCU: 0xD32A, offset: 0xD32A, size: 0x8, addend: 0x0, symName: __ZNKSt3__112basic_stringIcNS_11char_traitsIcEENS_9allocatorIcEEE19__get_short_pointerB7v160006Ev, symObjAddr: 0x2F10, symBinAddr: 0x100005720, symSize: 0x30 }
  - { offsetInCU: 0xD34F, offset: 0xD34F, size: 0x8, addend: 0x0, symName: __ZNKSt3__117__compressed_pairINS_12basic_stringIcNS_11char_traitsIcEENS_9allocatorIcEEE5__repES5_E5firstB7v160006Ev, symObjAddr: 0x2F40, symBinAddr: 0x100005750, symSize: 0x20 }
  - { offsetInCU: 0xD374, offset: 0xD374, size: 0x8, addend: 0x0, symName: __ZNKSt3__122__compressed_pair_elemINS_12basic_stringIcNS_11char_traitsIcEENS_9allocatorIcEEE5__repELi0ELb0EE5__getB7v160006Ev, symObjAddr: 0x2F60, symBinAddr: 0x100005770, symSize: 0x10 }
  - { offsetInCU: 0xD399, offset: 0xD399, size: 0x8, addend: 0x0, symName: __ZNSt3__114pointer_traitsIPKcE10pointer_toB7v160006ERS1_, symObjAddr: 0x2F70, symBinAddr: 0x100005780, symSize: 0x10 }
  - { offsetInCU: 0xD3BC, offset: 0xD3BC, size: 0x8, addend: 0x0, symName: __ZNSt3__119ostreambuf_iteratorIcNS_11char_traitsIcEEEC2B7v160006ERNS_13basic_ostreamIcS2_EE, symObjAddr: 0x2F80, symBinAddr: 0x100005790, symSize: 0x60 }
  - { offsetInCU: 0xD3F2, offset: 0xD3F2, size: 0x8, addend: 0x0, symName: __ZNKSt3__19basic_iosIcNS_11char_traitsIcEEE5rdbufB7v160006Ev, symObjAddr: 0x2FE0, symBinAddr: 0x1000057F0, symSize: 0x20 }
  - { offsetInCU: 0xD419, offset: 0xD419, size: 0x8, addend: 0x0, symName: __ZNKSt3__18ios_base5rdbufB7v160006Ev, symObjAddr: 0x3000, symBinAddr: 0x100005810, symSize: 0x20 }
  - { offsetInCU: 0xD43E, offset: 0xD43E, size: 0x8, addend: 0x0, symName: __ZNSt3__111char_traitsIcE11eq_int_typeEii, symObjAddr: 0x3020, symBinAddr: 0x100005830, symSize: 0x20 }
  - { offsetInCU: 0xD46E, offset: 0xD46E, size: 0x8, addend: 0x0, symName: __ZNKSt3__19basic_iosIcNS_11char_traitsIcEEE5widenB7v160006Ec, symObjAddr: 0x3040, symBinAddr: 0x100005850, symSize: 0x90 }
  - { offsetInCU: 0xD4D1, offset: 0xD4D1, size: 0x8, addend: 0x0, symName: __ZNKSt3__15ctypeIcE5widenB7v160006Ec, symObjAddr: 0x3100, symBinAddr: 0x100005910, symSize: 0x30 }
  - { offsetInCU: 0xD523, offset: 0xD523, size: 0x8, addend: 0x0, symName: __ZNKSt3__113basic_istreamIcNS_11char_traitsIcEEE6sentrycvbB7v160006Ev, symObjAddr: 0x3150, symBinAddr: 0x100005960, symSize: 0x20 }
  - { offsetInCU: 0xD547, offset: 0xD547, size: 0x8, addend: 0x0, symName: __ZNSt3__112basic_stringIcNS_11char_traitsIcEENS_9allocatorIcEEE5clearB7v160006Ev, symObjAddr: 0x3170, symBinAddr: 0x100005980, symSize: 0xA0 }
  - { offsetInCU: 0xD56E, offset: 0xD56E, size: 0x8, addend: 0x0, symName: __ZNKSt3__112basic_stringIcNS_11char_traitsIcEENS_9allocatorIcEEE8max_sizeB7v160006Ev, symObjAddr: 0x3210, symBinAddr: 0x100005A20, symSize: 0xA0 }
  - { offsetInCU: 0xD5C0, offset: 0xD5C0, size: 0x8, addend: 0x0, symName: __ZNSt3__114numeric_limitsIlE3maxB7v160006Ev, symObjAddr: 0x32B0, symBinAddr: 0x100005AC0, symSize: 0x10 }
  - { offsetInCU: 0xD5D4, offset: 0xD5D4, size: 0x8, addend: 0x0, symName: __ZNSt3__115basic_streambufIcNS_11char_traitsIcEEE5sgetcB7v160006Ev, symObjAddr: 0x32C0, symBinAddr: 0x100005AD0, symSize: 0x50 }
  - { offsetInCU: 0xD5F9, offset: 0xD5F9, size: 0x8, addend: 0x0, symName: __ZNSt3__111char_traitsIcE12to_char_typeEi, symObjAddr: 0x3310, symBinAddr: 0x100005B20, symSize: 0x10 }
  - { offsetInCU: 0xD61C, offset: 0xD61C, size: 0x8, addend: 0x0, symName: __ZNKSt3__15ctypeIcE2isB7v160006Ejc, symObjAddr: 0x3320, symBinAddr: 0x100005B30, symSize: 0x70 }
  - { offsetInCU: 0xD65F, offset: 0xD65F, size: 0x8, addend: 0x0, symName: __ZNSt3__115basic_streambufIcNS_11char_traitsIcEEE6sbumpcB7v160006Ev, symObjAddr: 0x3390, symBinAddr: 0x100005BA0, symSize: 0x60 }
  - { offsetInCU: 0xD684, offset: 0xD684, size: 0x8, addend: 0x0, symName: __ZNSt3__18ios_base18__setstate_nothrowB7v160006Ej, symObjAddr: 0x33F0, symBinAddr: 0x100005C00, symSize: 0x50 }
  - { offsetInCU: 0xD6B8, offset: 0xD6B8, size: 0x8, addend: 0x0, symName: __ZNKSt3__19basic_iosIcNS_11char_traitsIcEEE10exceptionsB7v160006Ev, symObjAddr: 0x3440, symBinAddr: 0x100005C50, symSize: 0x20 }
  - { offsetInCU: 0xD6DD, offset: 0xD6DD, size: 0x8, addend: 0x0, symName: __ZNSt3__111char_traitsIcE6assignERcRKc, symObjAddr: 0x3470, symBinAddr: 0x100005C80, symSize: 0x20 }
  - { offsetInCU: 0xD70E, offset: 0xD70E, size: 0x8, addend: 0x0, symName: __ZNSt3__112basic_stringIcNS_11char_traitsIcEENS_9allocatorIcEEE18__get_long_pointerB7v160006Ev, symObjAddr: 0x3490, symBinAddr: 0x100005CA0, symSize: 0x20 }
  - { offsetInCU: 0xD733, offset: 0xD733, size: 0x8, addend: 0x0, symName: __ZNSt3__112basic_stringIcNS_11char_traitsIcEENS_9allocatorIcEEE19__get_short_pointerB7v160006Ev, symObjAddr: 0x34B0, symBinAddr: 0x100005CC0, symSize: 0x30 }
  - { offsetInCU: 0xD758, offset: 0xD758, size: 0x8, addend: 0x0, symName: __ZNSt3__112basic_stringIcNS_11char_traitsIcEENS_9allocatorIcEEE16__set_short_sizeB7v160006Em, symObjAddr: 0x34E0, symBinAddr: 0x100005CF0, symSize: 0x50 }
  - { offsetInCU: 0xD78C, offset: 0xD78C, size: 0x8, addend: 0x0, symName: __ZNSt3__114pointer_traitsIPcE10pointer_toB7v160006ERc, symObjAddr: 0x3530, symBinAddr: 0x100005D40, symSize: 0x10 }
  - { offsetInCU: 0xD7AF, offset: 0xD7AF, size: 0x8, addend: 0x0, symName: __ZNKSt3__112basic_stringIcNS_11char_traitsIcEENS_9allocatorIcEEE7__allocB7v160006Ev, symObjAddr: 0x3540, symBinAddr: 0x100005D50, symSize: 0x20 }
  - { offsetInCU: 0xD7D4, offset: 0xD7D4, size: 0x8, addend: 0x0, symName: __ZNSt3__114numeric_limitsImE3maxB7v160006Ev, symObjAddr: 0x3560, symBinAddr: 0x100005D70, symSize: 0x10 }
  - { offsetInCU: 0xD7E8, offset: 0xD7E8, size: 0x8, addend: 0x0, symName: __ZNKSt3__117__compressed_pairINS_12basic_stringIcNS_11char_traitsIcEENS_9allocatorIcEEE5__repES5_E6secondB7v160006Ev, symObjAddr: 0x3570, symBinAddr: 0x100005D80, symSize: 0x20 }
  - { offsetInCU: 0xD80D, offset: 0xD80D, size: 0x8, addend: 0x0, symName: __ZNKSt3__122__compressed_pair_elemINS_9allocatorIcEELi1ELb1EE5__getB7v160006Ev, symObjAddr: 0x3590, symBinAddr: 0x100005DA0, symSize: 0x10 }
  - { offsetInCU: 0xD832, offset: 0xD832, size: 0x8, addend: 0x0, symName: __ZNSt3__123__libcpp_numeric_limitsImLb1EE3maxB7v160006Ev, symObjAddr: 0x35A0, symBinAddr: 0x100005DB0, symSize: 0x10 }
  - { offsetInCU: 0xD846, offset: 0xD846, size: 0x8, addend: 0x0, symName: __ZNSt3__123__libcpp_numeric_limitsIlLb1EE3maxB7v160006Ev, symObjAddr: 0x35B0, symBinAddr: 0x100005DC0, symSize: 0x10 }
  - { offsetInCU: 0xD85A, offset: 0xD85A, size: 0x8, addend: 0x0, symName: __ZNSt3__111char_traitsIcE11to_int_typeEc, symObjAddr: 0x35C0, symBinAddr: 0x100005DD0, symSize: 0x10 }
  - { offsetInCU: 0xD87C, offset: 0xD87C, size: 0x8, addend: 0x0, symName: __Z7isasciii, symObjAddr: 0x35D0, symBinAddr: 0x100005DE0, symSize: 0x20 }
  - { offsetInCU: 0xD8A8, offset: 0xD8A8, size: 0x8, addend: 0x0, symName: __ZNKSt3__18ios_base10exceptionsB7v160006Ev, symObjAddr: 0x35F0, symBinAddr: 0x100005E00, symSize: 0x20 }
  - { offsetInCU: 0xD8CF, offset: 0xD8CF, size: 0x8, addend: 0x0, symName: __ZNSt3__16vectorI7StudentNS_9allocatorIS1_EEE9__end_capB7v160006Ev, symObjAddr: 0x3610, symBinAddr: 0x100005E20, symSize: 0x20 }
  - { offsetInCU: 0xD8F4, offset: 0xD8F4, size: 0x8, addend: 0x0, symName: __ZNSt3__16vectorI7StudentNS_9allocatorIS1_EEE22__construct_one_at_endB7v160006IJRKS1_EEEvDpOT_, symObjAddr: 0x3630, symBinAddr: 0x100005E40, symSize: 0xA0 }
  - { offsetInCU: 0xD941, offset: 0xD941, size: 0x8, addend: 0x0, symName: __ZNSt3__16vectorI7StudentNS_9allocatorIS1_EEE21__push_back_slow_pathIRKS1_EEvOT_, symObjAddr: 0x36D0, symBinAddr: 0x100005EE0, symSize: 0xE0 }
  - { offsetInCU: 0xD99E, offset: 0xD99E, size: 0x8, addend: 0x0, symName: __ZNSt3__117__compressed_pairIP7StudentNS_9allocatorIS1_EEE5firstB7v160006Ev, symObjAddr: 0x37B0, symBinAddr: 0x100005FC0, symSize: 0x20 }
  - { offsetInCU: 0xD9C3, offset: 0xD9C3, size: 0x8, addend: 0x0, symName: __ZNSt3__122__compressed_pair_elemIP7StudentLi0ELb0EE5__getB7v160006Ev, symObjAddr: 0x37D0, symBinAddr: 0x100005FE0, symSize: 0x10 }
  - { offsetInCU: 0xDA01, offset: 0xDA01, size: 0x8, addend: 0x0, symName: __ZNSt3__16vectorI7StudentNS_9allocatorIS1_EEE21_ConstructTransactionC1B7v160006ERS4_m, symObjAddr: 0x37E0, symBinAddr: 0x100005FF0, symSize: 0x30 }
  - { offsetInCU: 0xDA48, offset: 0xDA48, size: 0x8, addend: 0x0, symName: __ZNSt3__116allocator_traitsINS_9allocatorI7StudentEEE9constructB7v160006IS2_JRKS2_EvEEvRS3_PT_DpOT0_, symObjAddr: 0x3810, symBinAddr: 0x100006020, symSize: 0x30 }
  - { offsetInCU: 0xDA9F, offset: 0xDA9F, size: 0x8, addend: 0x0, symName: __ZNSt3__16vectorI7StudentNS_9allocatorIS1_EEE21_ConstructTransactionD1B7v160006Ev, symObjAddr: 0x3840, symBinAddr: 0x100006050, symSize: 0x20 }
  - { offsetInCU: 0xDAC8, offset: 0xDAC8, size: 0x8, addend: 0x0, symName: __ZNSt3__16vectorI7StudentNS_9allocatorIS1_EEE21_ConstructTransactionC2B7v160006ERS4_m, symObjAddr: 0x3860, symBinAddr: 0x100006070, symSize: 0x40 }
  - { offsetInCU: 0xDB0F, offset: 0xDB0F, size: 0x8, addend: 0x0, symName: __ZNSt3__19allocatorI7StudentE9constructB7v160006IS1_JRKS1_EEEvPT_DpOT0_, symObjAddr: 0x38A0, symBinAddr: 0x1000060B0, symSize: 0x30 }
  - { offsetInCU: 0xDB64, offset: 0xDB64, size: 0x8, addend: 0x0, symName: __ZN7StudentC1ERKS_, symObjAddr: 0x38D0, symBinAddr: 0x1000060E0, symSize: 0x30 }
  - { offsetInCU: 0xDB98, offset: 0xDB98, size: 0x8, addend: 0x0, symName: __ZN7StudentC2ERKS_, symObjAddr: 0x3900, symBinAddr: 0x100006110, symSize: 0xE0 }
  - { offsetInCU: 0xDBCC, offset: 0xDBCC, size: 0x8, addend: 0x0, symName: __ZNSt3__16vectorI7StudentNS_9allocatorIS1_EEE21_ConstructTransactionD2B7v160006Ev, symObjAddr: 0x39E0, symBinAddr: 0x1000061F0, symSize: 0x20 }
  - { offsetInCU: 0xDBF4, offset: 0xDBF4, size: 0x8, addend: 0x0, symName: __ZNKSt3__16vectorI7StudentNS_9allocatorIS1_EEE11__recommendB7v160006Em, symObjAddr: 0x3A00, symBinAddr: 0x100006210, symSize: 0xA0 }
  - { offsetInCU: 0xDC48, offset: 0xDC48, size: 0x8, addend: 0x0, symName: __ZNSt3__114__split_bufferI7StudentRNS_9allocatorIS1_EEEC1EmmS4_, symObjAddr: 0x3AA0, symBinAddr: 0x1000062B0, symSize: 0x40 }
  - { offsetInCU: 0xDC9D, offset: 0xDC9D, size: 0x8, addend: 0x0, symName: __ZNSt3__114__split_bufferI7StudentRNS_9allocatorIS1_EEED1Ev, symObjAddr: 0x3C10, symBinAddr: 0x100006420, symSize: 0x20 }
  - { offsetInCU: 0xDCC7, offset: 0xDCC7, size: 0x8, addend: 0x0, symName: __ZNKSt3__16vectorI7StudentNS_9allocatorIS1_EEE8max_sizeEv, symObjAddr: 0x3C30, symBinAddr: 0x100006440, symSize: 0x70 }
  - { offsetInCU: 0xDCEE, offset: 0xDCEE, size: 0x8, addend: 0x0, symName: __ZNKSt3__16vectorI7StudentNS_9allocatorIS1_EEE20__throw_length_errorB7v160006Ev, symObjAddr: 0x3CA0, symBinAddr: 0x1000064B0, symSize: 0x20 }
  - { offsetInCU: 0xDD1D, offset: 0xDD1D, size: 0x8, addend: 0x0, symName: __ZNSt3__116allocator_traitsINS_9allocatorI7StudentEEE8max_sizeB7v160006IS3_vEEmRKS3_, symObjAddr: 0x3D20, symBinAddr: 0x100006530, symSize: 0x20 }
  - { offsetInCU: 0xDD4B, offset: 0xDD4B, size: 0x8, addend: 0x0, symName: __ZNKSt3__16vectorI7StudentNS_9allocatorIS1_EEE7__allocB7v160006Ev, symObjAddr: 0x3D40, symBinAddr: 0x100006550, symSize: 0x20 }
  - { offsetInCU: 0xDD84, offset: 0xDD84, size: 0x8, addend: 0x0, symName: __ZNKSt3__16__lessImmEclB7v160006ERKmS3_, symObjAddr: 0x3DB0, symBinAddr: 0x1000065C0, symSize: 0x30 }
  - { offsetInCU: 0xDDC5, offset: 0xDDC5, size: 0x8, addend: 0x0, symName: __ZNKSt3__19allocatorI7StudentE8max_sizeB7v160006Ev, symObjAddr: 0x3DE0, symBinAddr: 0x1000065F0, symSize: 0x20 }
  - { offsetInCU: 0xDDEA, offset: 0xDDEA, size: 0x8, addend: 0x0, symName: __ZNKSt3__117__compressed_pairIP7StudentNS_9allocatorIS1_EEE6secondB7v160006Ev, symObjAddr: 0x3E00, symBinAddr: 0x100006610, symSize: 0x20 }
  - { offsetInCU: 0xDE0F, offset: 0xDE0F, size: 0x8, addend: 0x0, symName: __ZNKSt3__122__compressed_pair_elemINS_9allocatorI7StudentEELi1ELb1EE5__getB7v160006Ev, symObjAddr: 0x3E20, symBinAddr: 0x100006630, symSize: 0x10 }
  - { offsetInCU: 0xDE34, offset: 0xDE34, size: 0x8, addend: 0x0, symName: __ZNSt12length_errorC1B7v160006EPKc, symObjAddr: 0x3EA0, symBinAddr: 0x1000066B0, symSize: 0x30 }
  - { offsetInCU: 0xDE6B, offset: 0xDE6B, size: 0x8, addend: 0x0, symName: __ZNSt12length_errorC2B7v160006EPKc, symObjAddr: 0x3ED0, symBinAddr: 0x1000066E0, symSize: 0x40 }
  - { offsetInCU: 0xDEA2, offset: 0xDEA2, size: 0x8, addend: 0x0, symName: __ZNSt3__114__split_bufferI7StudentRNS_9allocatorIS1_EEEC2EmmS4_, symObjAddr: 0x3F60, symBinAddr: 0x100006770, symSize: 0xC0 }
  - { offsetInCU: 0xDF15, offset: 0xDF15, size: 0x8, addend: 0x0, symName: __ZNSt3__117__compressed_pairIP7StudentRNS_9allocatorIS1_EEEC1B7v160006IDnS5_EEOT_OT0_, symObjAddr: 0x4020, symBinAddr: 0x100006830, symSize: 0x30 }
  - { offsetInCU: 0xDF6C, offset: 0xDF6C, size: 0x8, addend: 0x0, symName: __ZNSt3__114__split_bufferI7StudentRNS_9allocatorIS1_EEE7__allocB7v160006Ev, symObjAddr: 0x4090, symBinAddr: 0x1000068A0, symSize: 0x20 }
  - { offsetInCU: 0xDF91, offset: 0xDF91, size: 0x8, addend: 0x0, symName: __ZNSt3__114__split_bufferI7StudentRNS_9allocatorIS1_EEE9__end_capB7v160006Ev, symObjAddr: 0x40B0, symBinAddr: 0x1000068C0, symSize: 0x20 }
  - { offsetInCU: 0xDFB6, offset: 0xDFB6, size: 0x8, addend: 0x0, symName: __ZNSt3__117__compressed_pairIP7StudentRNS_9allocatorIS1_EEEC2B7v160006IDnS5_EEOT_OT0_, symObjAddr: 0x40D0, symBinAddr: 0x1000068E0, symSize: 0x40 }
  - { offsetInCU: 0xE00D, offset: 0xE00D, size: 0x8, addend: 0x0, symName: __ZNSt3__122__compressed_pair_elemIRNS_9allocatorI7StudentEELi1ELb0EEC2B7v160006IS4_vEEOT_, symObjAddr: 0x4110, symBinAddr: 0x100006920, symSize: 0x20 }
  - { offsetInCU: 0xE04E, offset: 0xE04E, size: 0x8, addend: 0x0, symName: __ZNSt3__19allocatorI7StudentE8allocateB7v160006Em, symObjAddr: 0x4130, symBinAddr: 0x100006940, symSize: 0x80 }
  - { offsetInCU: 0xE081, offset: 0xE081, size: 0x8, addend: 0x0, symName: __ZNSt3__117__compressed_pairIP7StudentRNS_9allocatorIS1_EEE6secondB7v160006Ev, symObjAddr: 0x41B0, symBinAddr: 0x1000069C0, symSize: 0x20 }
  - { offsetInCU: 0xE0A6, offset: 0xE0A6, size: 0x8, addend: 0x0, symName: __ZNSt3__122__compressed_pair_elemIRNS_9allocatorI7StudentEELi1ELb0EE5__getB7v160006Ev, symObjAddr: 0x41D0, symBinAddr: 0x1000069E0, symSize: 0x20 }
  - { offsetInCU: 0xE0CB, offset: 0xE0CB, size: 0x8, addend: 0x0, symName: __ZNSt3__117__compressed_pairIP7StudentRNS_9allocatorIS1_EEE5firstB7v160006Ev, symObjAddr: 0x41F0, symBinAddr: 0x100006A00, symSize: 0x20 }
  - { offsetInCU: 0xE0F0, offset: 0xE0F0, size: 0x8, addend: 0x0, symName: __ZNSt3__116reverse_iteratorIP7StudentEC1B7v160006ES2_, symObjAddr: 0x43A0, symBinAddr: 0x100006BB0, symSize: 0x30 }
  - { offsetInCU: 0xE127, offset: 0xE127, size: 0x8, addend: 0x0, symName: __ZNKSt3__116reverse_iteratorIP7StudentE4baseB7v160006Ev, symObjAddr: 0x43D0, symBinAddr: 0x100006BE0, symSize: 0x20 }
  - { offsetInCU: 0xE14C, offset: 0xE14C, size: 0x8, addend: 0x0, symName: __ZNKSt3__16vectorI7StudentNS_9allocatorIS1_EEE14__annotate_newB7v160006Em, symObjAddr: 0x4430, symBinAddr: 0x100006C40, symSize: 0xA0 }
  - { offsetInCU: 0xE180, offset: 0xE180, size: 0x8, addend: 0x0, symName: __ZNSt3__129_AllocatorDestroyRangeReverseINS_9allocatorI7StudentEENS_16reverse_iteratorIPS2_EEEC1B7v160006ERS3_RS6_S9_, symObjAddr: 0x4540, symBinAddr: 0x100006D50, symSize: 0x40 }
  - { offsetInCU: 0xE1D6, offset: 0xE1D6, size: 0x8, addend: 0x0, symName: __ZNKSt3__116reverse_iteratorIP7StudentEdeB7v160006Ev, symObjAddr: 0x45E0, symBinAddr: 0x100006DF0, symSize: 0x30 }
  - { offsetInCU: 0xE209, offset: 0xE209, size: 0x8, addend: 0x0, symName: __ZNSt3__116reverse_iteratorIP7StudentEppB7v160006Ev, symObjAddr: 0x4610, symBinAddr: 0x100006E20, symSize: 0x20 }
  - { offsetInCU: 0xE22E, offset: 0xE22E, size: 0x8, addend: 0x0, symName: __ZNSt3__128__exception_guard_exceptionsINS_29_AllocatorDestroyRangeReverseINS_9allocatorI7StudentEENS_16reverse_iteratorIPS3_EEEEE10__completeB7v160006Ev, symObjAddr: 0x4630, symBinAddr: 0x100006E40, symSize: 0x20 }
  - { offsetInCU: 0xE253, offset: 0xE253, size: 0x8, addend: 0x0, symName: __ZNSt3__128__exception_guard_exceptionsINS_29_AllocatorDestroyRangeReverseINS_9allocatorI7StudentEENS_16reverse_iteratorIPS3_EEEEED1B7v160006Ev, symObjAddr: 0x4650, symBinAddr: 0x100006E60, symSize: 0x20 }
  - { offsetInCU: 0xE27C, offset: 0xE27C, size: 0x8, addend: 0x0, symName: __ZNSt3__128__exception_guard_exceptionsINS_29_AllocatorDestroyRangeReverseINS_9allocatorI7StudentEENS_16reverse_iteratorIPS3_EEEEEC1B7v160006ES8_, symObjAddr: 0x4670, symBinAddr: 0x100006E80, symSize: 0x40 }
  - { offsetInCU: 0xE2B3, offset: 0xE2B3, size: 0x8, addend: 0x0, symName: __ZNSt3__128__exception_guard_exceptionsINS_29_AllocatorDestroyRangeReverseINS_9allocatorI7StudentEENS_16reverse_iteratorIPS3_EEEEEC2B7v160006ES8_, symObjAddr: 0x46B0, symBinAddr: 0x100006EC0, symSize: 0x30 }
  - { offsetInCU: 0xE2EA, offset: 0xE2EA, size: 0x8, addend: 0x0, symName: __ZNSt3__129_AllocatorDestroyRangeReverseINS_9allocatorI7StudentEENS_16reverse_iteratorIPS2_EEEC2B7v160006ERS3_RS6_S9_, symObjAddr: 0x46E0, symBinAddr: 0x100006EF0, symSize: 0x40 }
  - { offsetInCU: 0xE345, offset: 0xE345, size: 0x8, addend: 0x0, symName: __ZNSt3__119__to_address_helperINS_16reverse_iteratorIP7StudentEEvE6__callB7v160006ERKS4_, symObjAddr: 0x4720, symBinAddr: 0x100006F30, symSize: 0x50 }
  - { offsetInCU: 0xE368, offset: 0xE368, size: 0x8, addend: 0x0, symName: __ZNKSt3__116reverse_iteratorIP7StudentEptB7v160006Ev, symObjAddr: 0x4770, symBinAddr: 0x100006F80, symSize: 0x20 }
  - { offsetInCU: 0xE38D, offset: 0xE38D, size: 0x8, addend: 0x0, symName: __ZNSt3__128__exception_guard_exceptionsINS_29_AllocatorDestroyRangeReverseINS_9allocatorI7StudentEENS_16reverse_iteratorIPS3_EEEEED2B7v160006Ev, symObjAddr: 0x4790, symBinAddr: 0x100006FA0, symSize: 0x30 }
  - { offsetInCU: 0xE3B6, offset: 0xE3B6, size: 0x8, addend: 0x0, symName: __ZNKSt3__129_AllocatorDestroyRangeReverseINS_9allocatorI7StudentEENS_16reverse_iteratorIPS2_EEEclB7v160006Ev, symObjAddr: 0x47C0, symBinAddr: 0x100006FD0, symSize: 0xF0 }
  - { offsetInCU: 0xE3DC, offset: 0xE3DC, size: 0x8, addend: 0x0, symName: __ZNSt3__116reverse_iteratorINS0_IP7StudentEEEC1B7v160006ES3_, symObjAddr: 0x4920, symBinAddr: 0x100007130, symSize: 0x30 }
  - { offsetInCU: 0xE413, offset: 0xE413, size: 0x8, addend: 0x0, symName: __ZNSt3__116reverse_iteratorINS0_IP7StudentEEEppB7v160006Ev, symObjAddr: 0x49C0, symBinAddr: 0x1000071D0, symSize: 0x30 }
  - { offsetInCU: 0xE438, offset: 0xE438, size: 0x8, addend: 0x0, symName: __ZNKSt3__116reverse_iteratorINS0_IP7StudentEEE4baseB7v160006Ev, symObjAddr: 0x49F0, symBinAddr: 0x100007200, symSize: 0x20 }
  - { offsetInCU: 0xE462, offset: 0xE462, size: 0x8, addend: 0x0, symName: __ZNSt3__119__to_address_helperINS_16reverse_iteratorINS1_IP7StudentEEEEvE6__callB7v160006ERKS5_, symObjAddr: 0x4A10, symBinAddr: 0x100007220, symSize: 0x50 }
  - { offsetInCU: 0xE485, offset: 0xE485, size: 0x8, addend: 0x0, symName: __ZNKSt3__116reverse_iteratorINS0_IP7StudentEEEptB7v160006Ev, symObjAddr: 0x4A60, symBinAddr: 0x100007270, symSize: 0x20 }
  - { offsetInCU: 0xE4AA, offset: 0xE4AA, size: 0x8, addend: 0x0, symName: __ZNKSt3__116reverse_iteratorINS0_IP7StudentEEEdeB7v160006Ev, symObjAddr: 0x4A80, symBinAddr: 0x100007290, symSize: 0x40 }
  - { offsetInCU: 0xE4DD, offset: 0xE4DD, size: 0x8, addend: 0x0, symName: __ZNSt3__116reverse_iteratorIP7StudentEmmB7v160006Ev, symObjAddr: 0x4AC0, symBinAddr: 0x1000072D0, symSize: 0x20 }
  - { offsetInCU: 0xE502, offset: 0xE502, size: 0x8, addend: 0x0, symName: __ZNSt3__116reverse_iteratorINS0_IP7StudentEEEC2B7v160006ES3_, symObjAddr: 0x4AE0, symBinAddr: 0x1000072F0, symSize: 0x40 }
  - { offsetInCU: 0xE539, offset: 0xE539, size: 0x8, addend: 0x0, symName: __ZNSt3__116reverse_iteratorIP7StudentEC2B7v160006ES2_, symObjAddr: 0x4B20, symBinAddr: 0x100007330, symSize: 0x30 }
  - { offsetInCU: 0xE570, offset: 0xE570, size: 0x8, addend: 0x0, symName: __ZNSt3__114__split_bufferI7StudentRNS_9allocatorIS1_EEED2Ev, symObjAddr: 0x4B50, symBinAddr: 0x100007360, symSize: 0x60 }
  - { offsetInCU: 0xE59B, offset: 0xE59B, size: 0x8, addend: 0x0, symName: __ZNSt3__114__split_bufferI7StudentRNS_9allocatorIS1_EEE5clearB7v160006Ev, symObjAddr: 0x4BB0, symBinAddr: 0x1000073C0, symSize: 0x20 }
  - { offsetInCU: 0xE5C0, offset: 0xE5C0, size: 0x8, addend: 0x0, symName: __ZNKSt3__114__split_bufferI7StudentRNS_9allocatorIS1_EEE8capacityB7v160006Ev, symObjAddr: 0x4BD0, symBinAddr: 0x1000073E0, symSize: 0x40 }
  - { offsetInCU: 0xE5E5, offset: 0xE5E5, size: 0x8, addend: 0x0, symName: __ZNSt3__114__split_bufferI7StudentRNS_9allocatorIS1_EEE17__destruct_at_endB7v160006EPS1_, symObjAddr: 0x4C10, symBinAddr: 0x100007420, symSize: 0x30 }
  - { offsetInCU: 0xE617, offset: 0xE617, size: 0x8, addend: 0x0, symName: __ZNSt3__114__split_bufferI7StudentRNS_9allocatorIS1_EEE17__destruct_at_endB7v160006EPS1_NS_17integral_constantIbLb0EEE, symObjAddr: 0x4C40, symBinAddr: 0x100007450, symSize: 0x80 }
  - { offsetInCU: 0xE657, offset: 0xE657, size: 0x8, addend: 0x0, symName: __ZNKSt3__114__split_bufferI7StudentRNS_9allocatorIS1_EEE9__end_capB7v160006Ev, symObjAddr: 0x4CC0, symBinAddr: 0x1000074D0, symSize: 0x20 }
  - { offsetInCU: 0xE67C, offset: 0xE67C, size: 0x8, addend: 0x0, symName: __ZNKSt3__117__compressed_pairIP7StudentRNS_9allocatorIS1_EEE5firstB7v160006Ev, symObjAddr: 0x4CE0, symBinAddr: 0x1000074F0, symSize: 0x20 }
  - { offsetInCU: 0xE6A1, offset: 0xE6A1, size: 0x8, addend: 0x0, symName: __ZNSt3__16vectorI7StudentNS_9allocatorIS1_EEE11__make_iterB7v160006EPS1_, symObjAddr: 0x4D00, symBinAddr: 0x100007510, symSize: 0x30 }
  - { offsetInCU: 0xE6D5, offset: 0xE6D5, size: 0x8, addend: 0x0, symName: __ZNSt3__111__wrap_iterIP7StudentEC1B7v160006EPKvS2_, symObjAddr: 0x4D30, symBinAddr: 0x100007540, symSize: 0x30 }
  - { offsetInCU: 0xE71A, offset: 0xE71A, size: 0x8, addend: 0x0, symName: __ZNSt3__111__wrap_iterIP7StudentEC2B7v160006EPKvS2_, symObjAddr: 0x4D60, symBinAddr: 0x100007570, symSize: 0x20 }
  - { offsetInCU: 0xE75F, offset: 0xE75F, size: 0x8, addend: 0x0, symName: __ZNKSt3__111__wrap_iterIP7StudentE4baseB7v160006Ev, symObjAddr: 0x4DC0, symBinAddr: 0x1000075D0, symSize: 0x20 }
  - { offsetInCU: 0xE784, offset: 0xE784, size: 0x8, addend: 0x0, symName: __ZNSt3__113basic_ostreamIcNS_11char_traitsIcEEEC2B7v160006EPNS_15basic_streambufIcS2_EE, symObjAddr: 0x4DE0, symBinAddr: 0x1000075F0, symSize: 0x50 }
  - { offsetInCU: 0xE7C7, offset: 0xE7C7, size: 0x8, addend: 0x0, symName: __ZNKSt3__16vectorI7StudentNS_9allocatorIS1_EEE11__make_iterB7v160006EPKS1_, symObjAddr: 0x4E30, symBinAddr: 0x100007640, symSize: 0x30 }
  - { offsetInCU: 0xE7FB, offset: 0xE7FB, size: 0x8, addend: 0x0, symName: __ZNSt3__111__wrap_iterIPK7StudentEC1B7v160006EPKvS3_, symObjAddr: 0x4E60, symBinAddr: 0x100007670, symSize: 0x30 }
  - { offsetInCU: 0xE840, offset: 0xE840, size: 0x8, addend: 0x0, symName: __ZNSt3__111__wrap_iterIPK7StudentEC2B7v160006EPKvS3_, symObjAddr: 0x4E90, symBinAddr: 0x1000076A0, symSize: 0x20 }
  - { offsetInCU: 0xE885, offset: 0xE885, size: 0x8, addend: 0x0, symName: __ZNKSt3__111__wrap_iterIPK7StudentE4baseB7v160006Ev, symObjAddr: 0x4EF0, symBinAddr: 0x100007700, symSize: 0x20 }
  - { offsetInCU: 0xE8AA, offset: 0xE8AA, size: 0x8, addend: 0x0, symName: __ZNKSt3__112basic_stringIcNS_11char_traitsIcEENS_9allocatorIcEEE4sizeB7v160006Ev, symObjAddr: 0x4F10, symBinAddr: 0x100007720, symSize: 0x50 }
  - { offsetInCU: 0xE8CF, offset: 0xE8CF, size: 0x8, addend: 0x0, symName: __ZNKSt3__112basic_stringIcNS_11char_traitsIcEENS_9allocatorIcEEE15__get_long_sizeB7v160006Ev, symObjAddr: 0x4F60, symBinAddr: 0x100007770, symSize: 0x20 }
  - { offsetInCU: 0xE8F4, offset: 0xE8F4, size: 0x8, addend: 0x0, symName: __ZNKSt3__112basic_stringIcNS_11char_traitsIcEENS_9allocatorIcEEE16__get_short_sizeB7v160006Ev, symObjAddr: 0x4F80, symBinAddr: 0x100007790, symSize: 0x30 }
  - { offsetInCU: 0xE918, offset: 0xE918, size: 0x8, addend: 0x0, symName: __ZNSt3__18ios_base9precisionB7v160006El, symObjAddr: 0x4FB0, symBinAddr: 0x1000077C0, symSize: 0x26 }
...
